
main.elf:     file format elf32-tradlittlemips


Disassembly of section .text:

00000000 <boot_start>:
   0:	3c1d0000 	lui	sp,0x0
   4:	27bd0138 	addiu	sp,sp,312
   8:	3c080000 	lui	t0,0x0
   c:	25080238 	addiu	t0,t0,568
  10:	ad1d0000 	sw	sp,0(t0)
  14:	3c1d0000 	lui	sp,0x0
  18:	27bd0238 	addiu	sp,sp,568
  1c:	3c080000 	lui	t0,0x0
  20:	2508023c 	addiu	t0,t0,572
  24:	ad1d0000 	sw	sp,0(t0)
  28:	3c080000 	lui	t0,0x0
  2c:	25080100 	addiu	t0,t0,256
  30:	4088f800 	mtc0	t0,c0_desave
  34:	3c088000 	lui	t0,0x8000
  38:	3c09007f 	lui	t1,0x7f
  3c:	3529ffff 	ori	t1,t1,0xffff
  40:	ad090000 	sw	t1,0(t0)
  44:	24090001 	li	t1,1
  48:	00094900 	sll	t1,t1,0x4
  4c:	01095821 	addu	t3,t0,t1
  50:	240a0007 	li	t2,7
  54:	ad6a0000 	sw	t2,0(t3)
  58:	240a0007 	li	t2,7
  5c:	24090003 	li	t1,3
  60:	00094900 	sll	t1,t1,0x4
  64:	01095821 	addu	t3,t0,t1
  68:	ad6a0000 	sw	t2,0(t3)
  6c:	24090002 	li	t1,2
  70:	00094900 	sll	t1,t1,0x4
  74:	01095821 	addu	t3,t0,t1
  78:	240a6800 	li	t2,26624
  7c:	ad6a0000 	sw	t2,0(t3)
  80:	3c088000 	lui	t0,0x8000
  84:	35080210 	ori	t0,t0,0x210
  88:	240900e1 	li	t1,225
  8c:	ad090000 	sw	t1,0(t0)
  90:	3c088000 	lui	t0,0x8000
  94:	35080100 	ori	t0,t0,0x100
  98:	2409000f 	li	t1,15
  9c:	ad090000 	sw	t1,0(t0)
  a0:	0c000090 	jal	240 <main>

000000a4 <end_boot>:
  a4:	08000029 	j	a4 <end_boot>
  a8:	00000000 	nop
	...

00000100 <InterruptionServiceRoutine>:
 100:	3c1a0000 	lui	k0,0x0
 104:	275a0240 	addiu	k0,k0,576
 108:	af410000 	sw	at,0(k0)
 10c:	af420004 	sw	v0,4(k0)
 110:	af430008 	sw	v1,8(k0)
 114:	af44000c 	sw	a0,12(k0)
 118:	af450010 	sw	a1,16(k0)
 11c:	af460014 	sw	a2,20(k0)
 120:	af470018 	sw	a3,24(k0)
 124:	af48001c 	sw	t0,28(k0)
 128:	af490020 	sw	t1,32(k0)
 12c:	af4a0024 	sw	t2,36(k0)
 130:	af4b0028 	sw	t3,40(k0)
 134:	af4c002c 	sw	t4,44(k0)
 138:	af4d0030 	sw	t5,48(k0)
 13c:	af4e0034 	sw	t6,52(k0)
 140:	af4f0038 	sw	t7,56(k0)
 144:	af58003c 	sw	t8,60(k0)
 148:	af590040 	sw	t9,64(k0)
 14c:	af500044 	sw	s0,68(k0)
 150:	af510048 	sw	s1,72(k0)
 154:	af52004c 	sw	s2,76(k0)
 158:	af530050 	sw	s3,80(k0)
 15c:	af540054 	sw	s4,84(k0)
 160:	af550058 	sw	s5,88(k0)
 164:	af56005c 	sw	s6,92(k0)
 168:	af570060 	sw	s7,96(k0)
 16c:	af5c0064 	sw	gp,100(k0)
 170:	af5e0068 	sw	s8,104(k0)
 174:	af5d006c 	sw	sp,108(k0)
 178:	af5f0070 	sw	ra,112(k0)
 17c:	3c1b0000 	lui	k1,0x0
 180:	277b0238 	addiu	k1,k1,568
 184:	8f7d0000 	lw	sp,0(k1)
 188:	3c080000 	lui	t0,0x0
 18c:	250802c4 	addiu	t0,t0,708
 190:	3c098000 	lui	t1,0x8000
 194:	35290200 	ori	t1,t1,0x200
 198:	8d2a0000 	lw	t2,0(t1)
 19c:	000a5880 	sll	t3,t2,0x2
 1a0:	010b6021 	addu	t4,t0,t3
 1a4:	8d8d0000 	lw	t5,0(t4)
 1a8:	01a0f809 	jalr	t5
 1ac:	00000000 	nop
 1b0:	0800006d 	j	1b4 <RestoreContext>

000001b4 <RestoreContext>:
 1b4:	3c088000 	lui	t0,0x8000
 1b8:	35080220 	ori	t0,t0,0x220
 1bc:	ad0a0000 	sw	t2,0(t0)
 1c0:	3c1a0000 	lui	k0,0x0
 1c4:	275a0240 	addiu	k0,k0,576
 1c8:	8f410000 	lw	at,0(k0)
 1cc:	8f420004 	lw	v0,4(k0)
 1d0:	8f430008 	lw	v1,8(k0)
 1d4:	8f44000c 	lw	a0,12(k0)
 1d8:	8f450010 	lw	a1,16(k0)
 1dc:	8f460014 	lw	a2,20(k0)
 1e0:	8f470018 	lw	a3,24(k0)
 1e4:	8f48001c 	lw	t0,28(k0)
 1e8:	8f490020 	lw	t1,32(k0)
 1ec:	8f4a0024 	lw	t2,36(k0)
 1f0:	8f4b0028 	lw	t3,40(k0)
 1f4:	8f4c002c 	lw	t4,44(k0)
 1f8:	8f4d0030 	lw	t5,48(k0)
 1fc:	8f4e0034 	lw	t6,52(k0)
 200:	8f4f0038 	lw	t7,56(k0)
 204:	8f58003c 	lw	t8,60(k0)
 208:	8f590040 	lw	t9,64(k0)
 20c:	8f500044 	lw	s0,68(k0)
 210:	8f510048 	lw	s1,72(k0)
 214:	8f52004c 	lw	s2,76(k0)
 218:	8f530050 	lw	s3,80(k0)
 21c:	8f540054 	lw	s4,84(k0)
 220:	8f550058 	lw	s5,88(k0)
 224:	8f56005c 	lw	s6,92(k0)
 228:	8f570060 	lw	s7,96(k0)
 22c:	8f5c0064 	lw	gp,100(k0)
 230:	8f5e0068 	lw	s8,104(k0)
 234:	8f5d006c 	lw	sp,108(k0)
 238:	8f5f0070 	lw	ra,112(k0)
 23c:	42000018 	eret

00000240 <main>:
 240:	27bdffd8 	addiu	sp,sp,-40
 244:	afb10018 	sw	s1,24(sp)
 248:	3c110000 	lui	s1,0x0
 24c:	afb00014 	sw	s0,20(sp)
 250:	afb2001c 	sw	s2,28(sp)
 254:	afb30020 	sw	s3,32(sp)
 258:	24030080 	li	v1,128
 25c:	afbf0024 	sw	ra,36(sp)
 260:	00008025 	move	s0,zero
 264:	263102f4 	addiu	s1,s1,756
 268:	3c138000 	lui	s3,0x8000
 26c:	24120010 	li	s2,16
 270:	8e620020 	lw	v0,32(s3)
 274:	00031bc0 	sll	v1,v1,0xf
 278:	30427fff 	andi	v0,v0,0x7fff
 27c:	00431025 	or	v0,v0,v1
 280:	24050001 	li	a1,1
 284:	24040001 	li	a0,1
 288:	26100001 	addiu	s0,s0,1
 28c:	ae620020 	sw	v0,32(s3)
 290:	0c0000cf 	jal	33c <delay>
 294:	00000000 	nop
 298:	00101080 	sll	v0,s0,0x2
 29c:	02221021 	addu	v0,s1,v0
 2a0:	12120010 	beq	s0,s2,2e4 <display_pattern>
 2a4:	00000000 	nop
 2a8:	8c430000 	lw	v1,0(v0)
 2ac:	8e620020 	lw	v0,32(s3)
 2b0:	00031bc0 	sll	v1,v1,0xf
 2b4:	30427fff 	andi	v0,v0,0x7fff
 2b8:	00431025 	or	v0,v0,v1
 2bc:	24050001 	li	a1,1
 2c0:	24040001 	li	a0,1
 2c4:	26100001 	addiu	s0,s0,1
 2c8:	ae620020 	sw	v0,32(s3)
 2cc:	0c0000cf 	jal	33c <delay>
 2d0:	00000000 	nop
 2d4:	00101080 	sll	v0,s0,0x2
 2d8:	02221021 	addu	v0,s1,v0
 2dc:	1612fff2 	bne	s0,s2,2a8 <main+0x68>
 2e0:	00000000 	nop
 2e4:	24030080 	li	v1,128
 2e8:	00008025 	move	s0,zero
 2ec:	1000ffe0 	b	270 <main+0x30>
 2f0:	00000000 	nop

000002f4 <setup_io_display>:
 2f4:	3c020000 	lui	v0,0x0
 2f8:	8c44001c 	lw	a0,28(v0)
 2fc:	3c020000 	lui	v0,0x0
 300:	8c430020 	lw	v1,32(v0)
 304:	3c020000 	lui	v0,0x0
 308:	8c420024 	lw	v0,36(v0)
 30c:	24057fff 	li	a1,32767
 310:	ac850000 	sw	a1,0(a0)
 314:	24040007 	li	a0,7
 318:	ac640000 	sw	a0,0(v1)
 31c:	ac400000 	sw	zero,0(v0)
 320:	03e00008 	jr	ra
 324:	00000000 	nop

00000328 <counter2seg>:
 328:	2402ffc0 	li	v0,-64
 32c:	a0820000 	sb	v0,0(a0)
 330:	a0820001 	sb	v0,1(a0)
 334:	03e00008 	jr	ra
 338:	00000000 	nop

0000033c <delay>:
 33c:	1880001b 	blez	a0,3ac <delay+0x70>
 340:	00000000 	nop
 344:	00003025 	move	a2,zero
 348:	24030001 	li	v1,1
 34c:	18a00012 	blez	a1,398 <delay+0x5c>
 350:	00000000 	nop
 354:	27bdfff8 	addiu	sp,sp,-8
 358:	00001025 	move	v0,zero
 35c:	24420001 	addiu	v0,v0,1
 360:	afa30000 	sw	v1,0(sp)
 364:	14a2fffd 	bne	a1,v0,35c <delay+0x20>
 368:	00000000 	nop
 36c:	24c60001 	addiu	a2,a2,1
 370:	10860006 	beq	a0,a2,38c <delay+0x50>
 374:	00000000 	nop
 378:	1ca0fff7 	bgtz	a1,358 <delay+0x1c>
 37c:	00000000 	nop
 380:	24c60001 	addiu	a2,a2,1
 384:	1486fffc 	bne	a0,a2,378 <delay+0x3c>
 388:	00000000 	nop
 38c:	27bd0008 	addiu	sp,sp,8
 390:	03e00008 	jr	ra
 394:	00000000 	nop
 398:	24c60001 	addiu	a2,a2,1
 39c:	1486ffeb 	bne	a0,a2,34c <delay+0x10>
 3a0:	00000000 	nop
 3a4:	03e00008 	jr	ra
 3a8:	00000000 	nop
 3ac:	03e00008 	jr	ra
 3b0:	00000000 	nop

000003b4 <debounce>:
 3b4:	3c020000 	lui	v0,0x0
 3b8:	8c470024 	lw	a3,36(v0)
 3bc:	3c0a0000 	lui	t2,0x0
 3c0:	8ce40000 	lw	a0,0(a3)
 3c4:	3c090000 	lui	t1,0x0
 3c8:	8ce30000 	lw	v1,0(a3)
 3cc:	8d4602bc 	lw	a2,700(t2)
 3d0:	8d2202b8 	lw	v0,696(t1)
 3d4:	3c080000 	lui	t0,0x0
 3d8:	00042082 	srl	a0,a0,0x2
 3dc:	00031842 	srl	v1,v1,0x1
 3e0:	8d0502b4 	lw	a1,692(t0)
 3e4:	00063040 	sll	a2,a2,0x1
 3e8:	00021040 	sll	v0,v0,0x1
 3ec:	30840001 	andi	a0,a0,0x1
 3f0:	30630001 	andi	v1,v1,0x1
 3f4:	8ce70000 	lw	a3,0(a3)
 3f8:	00862025 	or	a0,a0,a2
 3fc:	00621825 	or	v1,v1,v0
 400:	30e70001 	andi	a3,a3,0x1
 404:	00052840 	sll	a1,a1,0x1
 408:	3882ffff 	xori	v0,a0,0xffff
 40c:	3866ffff 	xori	a2,v1,0xffff
 410:	00a72825 	or	a1,a1,a3
 414:	2c420001 	sltiu	v0,v0,1
 418:	2cc60001 	sltiu	a2,a2,1
 41c:	3407ffff 	li	a3,0xffff
 420:	ad4402bc 	sw	a0,700(t2)
 424:	ad2302b8 	sw	v1,696(t1)
 428:	ad0502b4 	sw	a1,692(t0)
 42c:	00461023 	subu	v0,v0,a2
 430:	10a70003 	beq	a1,a3,440 <debounce+0x8c>
 434:	00000000 	nop
 438:	03e00008 	jr	ra
 43c:	00000000 	nop
 440:	24020002 	li	v0,2
 444:	03e00008 	jr	ra
 448:	00000000 	nop

0000044c <read_button>:
 44c:	27bdffe8 	addiu	sp,sp,-24
 450:	240b0020 	li	t3,32
 454:	afbf0014 	sw	ra,20(sp)
 458:	256bffff 	addiu	t3,t3,-1
 45c:	0c0000ed 	jal	3b4 <debounce>
 460:	00000000 	nop
 464:	1560fffc 	bnez	t3,458 <read_button+0xc>
 468:	00000000 	nop
 46c:	8fbf0014 	lw	ra,20(sp)
 470:	00001025 	move	v0,zero
 474:	27bd0018 	addiu	sp,sp,24
 478:	03e00008 	jr	ra
 47c:	00000000 	nop

00000480 <print_display>:
 480:	3c020000 	lui	v0,0x0
 484:	8c420024 	lw	v0,36(v0)
 488:	00000000 	nop
 48c:	8c430000 	lw	v1,0(v0)
 490:	10800012 	beqz	a0,4dc <print_display+0x5c>
 494:	00000000 	nop
 498:	24030001 	li	v1,1
 49c:	10830003 	beq	a0,v1,4ac <print_display+0x2c>
 4a0:	00000000 	nop
 4a4:	03e00008 	jr	ra
 4a8:	00000000 	nop
 4ac:	8c430000 	lw	v1,0(v0)
 4b0:	2404e007 	li	a0,-8185
 4b4:	34637800 	ori	v1,v1,0x7800
 4b8:	ac430000 	sw	v1,0(v0)
 4bc:	8c430000 	lw	v1,0(v0)
 4c0:	000528c0 	sll	a1,a1,0x3
 4c4:	00641824 	and	v1,v1,a0
 4c8:	34636800 	ori	v1,v1,0x6800
 4cc:	00652825 	or	a1,v1,a1
 4d0:	ac450000 	sw	a1,0(v0)
 4d4:	03e00008 	jr	ra
 4d8:	00000000 	nop
 4dc:	8c430000 	lw	v1,0(v0)
 4e0:	000520c0 	sll	a0,a1,0x3
 4e4:	34637800 	ori	v1,v1,0x7800
 4e8:	ac430000 	sw	v1,0(v0)
 4ec:	8c430000 	lw	v1,0(v0)
 4f0:	2405e007 	li	a1,-8185
 4f4:	00652824 	and	a1,v1,a1
 4f8:	34a57000 	ori	a1,a1,0x7000
 4fc:	00a42825 	or	a1,a1,a0
 500:	ac450000 	sw	a1,0(v0)
 504:	03e00008 	jr	ra
 508:	00000000 	nop

0000050c <refresh>:
 50c:	27bdfff8 	addiu	sp,sp,-8
 510:	3c020000 	lui	v0,0x0
 514:	8c430024 	lw	v1,36(v0)
 518:	24050001 	li	a1,1
 51c:	8c620000 	lw	v0,0(v1)
 520:	00000000 	nop
 524:	000212c2 	srl	v0,v0,0xb
 528:	00021027 	nor	v0,zero,v0
 52c:	30420003 	andi	v0,v0,0x3
 530:	10450012 	beq	v0,a1,57c <refresh+0x70>
 534:	00000000 	nop
 538:	24050002 	li	a1,2
 53c:	14450002 	bne	v0,a1,548 <refresh+0x3c>
 540:	00000000 	nop
 544:	00002025 	move	a0,zero
 548:	8c650000 	lw	a1,0(v1)
 54c:	2406e7ff 	li	a2,-6145
 550:	00a62824 	and	a1,a1,a2
 554:	2406c0c0 	li	a2,-16192
 558:	a7a60000 	sh	a2,0(sp)
 55c:	000212c0 	sll	v0,v0,0xb
 560:	03a43021 	addu	a2,sp,a0
 564:	00451025 	or	v0,v0,a1
 568:	90c50000 	lbu	a1,0(a2)
 56c:	ac620000 	sw	v0,0(v1)
 570:	27bd0008 	addiu	sp,sp,8
 574:	08000120 	j	480 <print_display>
 578:	00000000 	nop
 57c:	8c650000 	lw	a1,0(v1)
 580:	2406e7ff 	li	a2,-6145
 584:	00a62824 	and	a1,a1,a2
 588:	24040001 	li	a0,1
 58c:	2406c0c0 	li	a2,-16192
 590:	a7a60000 	sh	a2,0(sp)
 594:	000212c0 	sll	v0,v0,0xb
 598:	03a43021 	addu	a2,sp,a0
 59c:	00451025 	or	v0,v0,a1
 5a0:	90c50000 	lbu	a1,0(a2)
 5a4:	ac620000 	sw	v0,0(v1)
 5a8:	27bd0008 	addiu	sp,sp,8
 5ac:	08000120 	j	480 <print_display>
 5b0:	00000000 	nop

000005b4 <set_mask>:
 5b4:	00001025 	move	v0,zero
 5b8:	3c060000 	lui	a2,0x0
 5bc:	24050008 	li	a1,8
 5c0:	14820005 	bne	a0,v0,5d8 <set_mask+0x24>
 5c4:	00000000 	nop
 5c8:	8cc30028 	lw	v1,40(a2)
 5cc:	00000000 	nop
 5d0:	00641821 	addu	v1,v1,a0
 5d4:	a0600000 	sb	zero,0(v1)
 5d8:	24420001 	addiu	v0,v0,1
 5dc:	1445fff8 	bne	v0,a1,5c0 <set_mask+0xc>
 5e0:	00000000 	nop
 5e4:	03e00008 	jr	ra
 5e8:	00000000 	nop

000005ec <unset_mask>:
 5ec:	00001025 	move	v0,zero
 5f0:	3c070000 	lui	a3,0x0
 5f4:	24060001 	li	a2,1
 5f8:	24050008 	li	a1,8
 5fc:	14820005 	bne	a0,v0,614 <unset_mask+0x28>
 600:	00000000 	nop
 604:	8ce30028 	lw	v1,40(a3)
 608:	00000000 	nop
 60c:	00641821 	addu	v1,v1,a0
 610:	a0660000 	sb	a2,0(v1)
 614:	24420001 	addiu	v0,v0,1
 618:	1445fff8 	bne	v0,a1,5fc <unset_mask+0x10>
 61c:	00000000 	nop
 620:	03e00008 	jr	ra
 624:	00000000 	nop

00000628 <irq1_handler>:
 628:	03e00008 	jr	ra
 62c:	00000000 	nop

00000630 <irq0_handler>:
 630:	27bdffe8 	addiu	sp,sp,-24
 634:	afb00010 	sw	s0,16(sp)
 638:	3c100000 	lui	s0,0x0
 63c:	8e0202c0 	lw	v0,704(s0)
 640:	afbf0014 	sw	ra,20(sp)
 644:	2442ffff 	addiu	v0,v0,-1
 648:	ae0202c0 	sw	v0,704(s0)
 64c:	14400006 	bnez	v0,668 <irq0_handler+0x38>
 650:	00000000 	nop
 654:	00002025 	move	a0,zero
 658:	0c00017b 	jal	5ec <unset_mask>
 65c:	00000000 	nop
 660:	240206ff 	li	v0,1791
 664:	ae0202c0 	sw	v0,704(s0)
 668:	0c000143 	jal	50c <refresh>
 66c:	00000000 	nop
 670:	8fb00010 	lw	s0,16(sp)
 674:	8fbf0014 	lw	ra,20(sp)
 678:	3c028000 	lui	v0,0x8000
 67c:	24030fff 	li	v1,4095
 680:	ac430100 	sw	v1,256(v0)
 684:	27bd0018 	addiu	sp,sp,24
 688:	03e00008 	jr	ra
 68c:	00000000 	nop

00000690 <irq5_handler>:
 690:	27bdffe8 	addiu	sp,sp,-24
 694:	afbf0014 	sw	ra,20(sp)
 698:	0c000113 	jal	44c <read_button>
 69c:	00000000 	nop
 6a0:	0c000143 	jal	50c <refresh>
 6a4:	00000000 	nop
 6a8:	8fbf0014 	lw	ra,20(sp)
 6ac:	00002025 	move	a0,zero
 6b0:	27bd0018 	addiu	sp,sp,24
 6b4:	0800016d 	j	5b4 <set_mask>
 6b8:	00000000 	nop

000006bc <irq6_handler>:
 6bc:	080001a4 	j	690 <irq5_handler>
 6c0:	00000000 	nop

000006c4 <irq7_handler>:
 6c4:	080001a4 	j	690 <irq5_handler>
 6c8:	00000000 	nop

000006cc <irq4_handler>:
 6cc:	03e00008 	jr	ra
 6d0:	00000000 	nop

000006d4 <irq2_handler>:
 6d4:	03e00008 	jr	ra
 6d8:	00000000 	nop

000006dc <irq3_handler>:
 6dc:	03e00008 	jr	ra
 6e0:	00000000 	nop

000006e4 <counter2led>:
 6e4:	3c020000 	lui	v0,0x0
 6e8:	244202f4 	addiu	v0,v0,756
 6ec:	00042080 	sll	a0,a0,0x2
 6f0:	00822021 	addu	a0,a0,v0
 6f4:	8c820000 	lw	v0,0(a0)
 6f8:	00000000 	nop
 6fc:	aca20000 	sw	v0,0(a1)
 700:	03e00008 	jr	ra
 704:	00000000 	nop

00000708 <delay_led>:
 708:	1880001b 	blez	a0,778 <delay_led+0x70>
 70c:	00000000 	nop
 710:	00003025 	move	a2,zero
 714:	24030001 	li	v1,1
 718:	18a00012 	blez	a1,764 <delay_led+0x5c>
 71c:	00000000 	nop
 720:	27bdfff8 	addiu	sp,sp,-8
 724:	00001025 	move	v0,zero
 728:	24420001 	addiu	v0,v0,1
 72c:	afa30000 	sw	v1,0(sp)
 730:	14a2fffd 	bne	a1,v0,728 <delay_led+0x20>
 734:	00000000 	nop
 738:	24c60001 	addiu	a2,a2,1
 73c:	10860006 	beq	a0,a2,758 <delay_led+0x50>
 740:	00000000 	nop
 744:	1ca0fff7 	bgtz	a1,724 <delay_led+0x1c>
 748:	00000000 	nop
 74c:	24c60001 	addiu	a2,a2,1
 750:	1486fffc 	bne	a0,a2,744 <delay_led+0x3c>
 754:	00000000 	nop
 758:	27bd0008 	addiu	sp,sp,8
 75c:	03e00008 	jr	ra
 760:	00000000 	nop
 764:	24c60001 	addiu	a2,a2,1
 768:	1486ffeb 	bne	a0,a2,718 <delay_led+0x10>
 76c:	00000000 	nop
 770:	03e00008 	jr	ra
 774:	00000000 	nop
 778:	03e00008 	jr	ra
 77c:	00000000 	nop

Disassembly of section .MIPS.abiflags:

00000780 <.MIPS.abiflags>:
 780:	01200000 	0x1200000
 784:	03000001 	movf	zero,t8,$fcc0
	...
 790:	00000001 	movf	zero,zero,$fcc0
 794:	00000000 	nop

Disassembly of section .data:

00000000 <data_en_keep>:
   0:	ffffe7ff 	sdc3	$31,-6145(ra)

00000004 <data_disp_mask>:
   4:	000007f8 	0x7f8

00000008 <data_disp_keep>:
   8:	ffffe007 	sdc3	$31,-8185(ra)

0000000c <disp_en_mask>:
   c:	00001800 	sll	v1,zero,0x0

00000010 <reset_mask>:
  10:	00000001 	movf	zero,zero,$fcc0

00000014 <down_mask>:
  14:	00000002 	srl	zero,zero,0x0

00000018 <up_mask>:
  18:	00000004 	sllv	zero,zero,zero

0000001c <enable_display>:
  1c:	80000000 	lb	zero,0(zero)

00000020 <config_display>:
  20:	80000010 	lb	zero,16(zero)

00000024 <data_display>:
  24:	80000020 	lb	zero,32(zero)

00000028 <mask_reg>:
  28:	80000030 	lb	zero,48(zero)

0000002c <mask_buttons>:
  2c:	00000000 	nop

00000030 <data_led_mask>:
  30:	007f8000 	0x7f8000

00000034 <data_keep_mask>:
  34:	00007fff 	0x7fff

00000038 <stack_kernel>:
	...

00000138 <stack_user>:
	...

00000238 <kernel_sp>:
 238:	00000000 	nop

0000023c <user_sp>:
 23c:	00000000 	nop

00000240 <PCB>:
	...

000002b4 <button_restart_pressed.1308>:
 2b4:	00000000 	nop

000002b8 <button_down_pressed.1307>:
 2b8:	00000000 	nop

000002bc <button_up_pressed.1306>:
 2bc:	00000000 	nop

000002c0 <mask_button_counter.1285>:
 2c0:	000006ff 	0x6ff

000002c4 <irq_handlers>:
 2c4:	00000630 	tge	zero,zero,0x18
 2c8:	00000628 	0x628
 2cc:	000006d4 	0x6d4
 2d0:	000006dc 	0x6dc
 2d4:	000006cc 	syscall	0x1b
 2d8:	00000690 	0x690
 2dc:	000006bc 	0x6bc
 2e0:	000006c4 	0x6c4

000002e4 <display_pattern>:
 2e4:	b0a4f9c0 	0xb0a4f9c0
 2e8:	f8829299 	sdc2	$2,-28007(a0)
 2ec:	83889080 	lb	t0,-28544(gp)
 2f0:	8e86a1c6 	lw	a2,-24122(s4)

000002f4 <led_pattern>:
 2f4:	00000080 	sll	zero,zero,0x2
 2f8:	000000c0 	ehb
 2fc:	000000e0 	0xe0
 300:	000000f0 	tge	zero,zero,0x3
 304:	000000f8 	0xf8
 308:	000000fc 	0xfc
 30c:	000000fe 	0xfe
 310:	000000ff 	0xff
 314:	0000007f 	0x7f
 318:	0000003f 	0x3f
 31c:	0000001f 	0x1f
 320:	0000000f 	sync
 324:	00000007 	srav	zero,zero,zero
 328:	00000003 	sra	zero,zero,0x0
 32c:	00000001 	movf	zero,zero,$fcc0
 330:	00000000 	nop

Disassembly of section .reginfo:

00000000 <.reginfo>:
   0:	b0000f00 	0xb0000f00
	...

Disassembly of section .pdr:

00000000 <.pdr>:
   0:	000002f4 	teq	zero,zero,0xb
	...
  18:	0000001d 	0x1d
  1c:	0000001f 	0x1f
  20:	00000328 	0x328
	...
  38:	0000001d 	0x1d
  3c:	0000001f 	0x1f
  40:	0000033c 	0x33c
	...
  54:	00000008 	jr	zero
  58:	0000001d 	0x1d
  5c:	0000001f 	0x1f
  60:	000003b4 	teq	zero,zero,0xe
	...
  78:	0000001d 	0x1d
  7c:	0000001f 	0x1f
  80:	0000044c 	syscall	0x11
  84:	80000000 	lb	zero,0(zero)
  88:	fffffffc 	sdc3	$31,-4(ra)
	...
  94:	00000018 	mult	zero,zero
  98:	0000001d 	0x1d
  9c:	0000001f 	0x1f
  a0:	00000480 	sll	zero,zero,0x12
	...
  b8:	0000001d 	0x1d
  bc:	0000001f 	0x1f
  c0:	0000050c 	syscall	0x14
	...
  d4:	00000008 	jr	zero
  d8:	0000001d 	0x1d
  dc:	0000001f 	0x1f
  e0:	000005b4 	teq	zero,zero,0x16
	...
  f8:	0000001d 	0x1d
  fc:	0000001f 	0x1f
 100:	000005ec 	0x5ec
	...
 118:	0000001d 	0x1d
 11c:	0000001f 	0x1f
 120:	00000628 	0x628
	...
 138:	0000001d 	0x1d
 13c:	0000001f 	0x1f
 140:	00000630 	tge	zero,zero,0x18
 144:	80010000 	lb	at,0(zero)
 148:	fffffffc 	sdc3	$31,-4(ra)
	...
 154:	00000018 	mult	zero,zero
 158:	0000001d 	0x1d
 15c:	0000001f 	0x1f
 160:	00000690 	0x690
 164:	80000000 	lb	zero,0(zero)
 168:	fffffffc 	sdc3	$31,-4(ra)
	...
 174:	00000018 	mult	zero,zero
 178:	0000001d 	0x1d
 17c:	0000001f 	0x1f
 180:	000006bc 	0x6bc
	...
 198:	0000001d 	0x1d
 19c:	0000001f 	0x1f
 1a0:	000006c4 	0x6c4
	...
 1b8:	0000001d 	0x1d
 1bc:	0000001f 	0x1f
 1c0:	000006cc 	syscall	0x1b
	...
 1d8:	0000001d 	0x1d
 1dc:	0000001f 	0x1f
 1e0:	000006d4 	0x6d4
	...
 1f8:	0000001d 	0x1d
 1fc:	0000001f 	0x1f
 200:	000006dc 	0x6dc
	...
 218:	0000001d 	0x1d
 21c:	0000001f 	0x1f
 220:	000006e4 	0x6e4
	...
 238:	0000001d 	0x1d
 23c:	0000001f 	0x1f
 240:	00000708 	0x708
	...
 254:	00000008 	jr	zero
 258:	0000001d 	0x1d
 25c:	0000001f 	0x1f
 260:	00000240 	sll	zero,zero,0x9
 264:	800f0000 	lb	t7,0(zero)
 268:	fffffffc 	sdc3	$31,-4(ra)
	...
 274:	00000028 	0x28
 278:	0000001d 	0x1d
 27c:	0000001f 	0x1f

Disassembly of section .gnu.attributes:

00000000 <.gnu.attributes>:
   0:	00000f41 	0xf41
   4:	756e6700 	jalx	5b99c00 <_stack_ptr+0x5b97c04>
   8:	00070100 	sll	zero,a3,0x4
   c:	03040000 	0x3040000

Disassembly of section .comment:

00000000 <.comment>:
   0:	3a434347 	xori	v1,s2,0x4347
   4:	6f432820 	0x6f432820
   8:	63736564 	0x63736564
   c:	20657061 	addi	a1,v1,28769
  10:	20554e47 	addi	s5,v0,20039
  14:	6c6f6f54 	0x6c6f6f54
  18:	30322073 	andi	s2,at,0x2073
  1c:	302e3931 	andi	t6,at,0x3931
  20:	34302d32 	ori	s0,at,0x2d32
  24:	726f6620 	0x726f6620
  28:	50494d20 	beql	v0,t1,134ac <_stack_ptr+0x114b0>
  2c:	4d492053 	0x4d492053
  30:	61422047 	0x61422047
  34:	4d206572 	0x4d206572
  38:	6c617465 	0x6c617465
  3c:	2e372029 	sltiu	s7,s1,8233
  40:	00302e34 	teq	at,s0,0xb8
