
main.elf:     file format elf32-tradlittlemips


Disassembly of section .text:

00000000 <entry_point>:
   0:	3c1d0000 	lui	sp,0x0
   4:	27bd07fc 	addiu	sp,sp,2044
   8:	0c0000d2 	jal	348 <main>

0000000c <loop>:
   c:	08000003 	j	c <loop>

00000010 <strlen_>:
  10:	90820000 	lbu	v0,0(a0)
  14:	00000000 	nop
  18:	1040000a 	beqz	v0,44 <strlen_+0x34>
  1c:	00000000 	nop
  20:	24840001 	addiu	a0,a0,1
  24:	00001025 	move	v0,zero
  28:	24840001 	addiu	a0,a0,1
  2c:	9083ffff 	lbu	v1,-1(a0)
  30:	24420001 	addiu	v0,v0,1
  34:	1460fffc 	bnez	v1,28 <strlen_+0x18>
  38:	00000000 	nop
  3c:	03e00008 	jr	ra
  40:	00000000 	nop
  44:	00001025 	move	v0,zero
  48:	03e00008 	jr	ra
  4c:	00000000 	nop

00000050 <reverse>:
  50:	90870000 	lbu	a3,0(a0)
  54:	00000000 	nop
  58:	10e0001c 	beqz	a3,cc <reverse+0x7c>
  5c:	00000000 	nop
  60:	24820001 	addiu	v0,a0,1
  64:	00003025 	move	a2,zero
  68:	10000002 	b	74 <reverse+0x24>
  6c:	00000000 	nop
  70:	00a03025 	move	a2,a1
  74:	24420001 	addiu	v0,v0,1
  78:	9043ffff 	lbu	v1,-1(v0)
  7c:	24c50001 	addiu	a1,a2,1
  80:	1460fffb 	bnez	v1,70 <reverse+0x20>
  84:	00000000 	nop
  88:	10c00010 	beqz	a2,cc <reverse+0x7c>
  8c:	00000000 	nop
  90:	00861821 	addu	v1,a0,a2
  94:	00001025 	move	v0,zero
  98:	10000002 	b	a4 <reverse+0x54>
  9c:	00000000 	nop
  a0:	90870000 	lbu	a3,0(a0)
  a4:	24420001 	addiu	v0,v0,1
  a8:	90680000 	lbu	t0,0(v1)
  ac:	00c22823 	subu	a1,a2,v0
  b0:	0045282a 	slt	a1,v0,a1
  b4:	a0880000 	sb	t0,0(a0)
  b8:	a0670000 	sb	a3,0(v1)
  bc:	24840001 	addiu	a0,a0,1
  c0:	2463ffff 	addiu	v1,v1,-1
  c4:	14a0fff6 	bnez	a1,a0 <reverse+0x50>
  c8:	00000000 	nop
  cc:	03e00008 	jr	ra
  d0:	00000000 	nop

000000d4 <abs_>:
  d4:	00801025 	move	v0,a0
  d8:	04800003 	bltz	a0,e8 <abs_+0x14>
  dc:	00000000 	nop
  e0:	03e00008 	jr	ra
  e4:	00000000 	nop
  e8:	00041023 	negu	v0,a0
  ec:	03e00008 	jr	ra
  f0:	00000000 	nop

000000f4 <itoa_>:
  f4:	00801825 	move	v1,a0
  f8:	04810002 	bgez	a0,104 <itoa_+0x10>
  fc:	00000000 	nop
 100:	00041823 	negu	v1,a0
 104:	00a04025 	move	t0,a1
 108:	00a04825 	move	t1,a1
 10c:	00005025 	move	t2,zero
 110:	2407000a 	li	a3,10
 114:	10000002 	b	120 <itoa_+0x2c>
 118:	00000000 	nop
 11c:	00405025 	move	t2,v0
 120:	0067001a 	div	zero,v1,a3
 124:	14e00002 	bnez	a3,130 <itoa_+0x3c>
 128:	00000000 	nop
 12c:	0007000d 	break	0x7
 130:	25420001 	addiu	v0,t2,1
 134:	00003010 	mfhi	a2
	...
 140:	0067001a 	div	zero,v1,a3
 144:	14e00002 	bnez	a3,150 <itoa_+0x5c>
 148:	00000000 	nop
 14c:	0007000d 	break	0x7
 150:	00001812 	mflo	v1
 154:	04c10002 	bgez	a2,160 <itoa_+0x6c>
 158:	00000000 	nop
 15c:	00063023 	negu	a2,a2
 160:	24c60030 	addiu	a2,a2,48
 164:	a1260000 	sb	a2,0(t1)
 168:	25290001 	addiu	t1,t1,1
 16c:	1460ffeb 	bnez	v1,11c <itoa_+0x28>
 170:	00000000 	nop
 174:	00a23021 	addu	a2,a1,v0
 178:	04810005 	bgez	a0,190 <itoa_+0x9c>
 17c:	00000000 	nop
 180:	25420002 	addiu	v0,t2,2
 184:	2404002d 	li	a0,45
 188:	a0c40000 	sb	a0,0(a2)
 18c:	00a23021 	addu	a2,a1,v0
 190:	a0c00000 	sb	zero,0(a2)
 194:	90a70000 	lbu	a3,0(a1)
 198:	00000000 	nop
 19c:	10e0001b 	beqz	a3,20c <itoa_+0x118>
 1a0:	00000000 	nop
 1a4:	24a40001 	addiu	a0,a1,1
 1a8:	00003025 	move	a2,zero
 1ac:	10000002 	b	1b8 <itoa_+0xc4>
 1b0:	00000000 	nop
 1b4:	01403025 	move	a2,t2
 1b8:	24840001 	addiu	a0,a0,1
 1bc:	9089ffff 	lbu	t1,-1(a0)
 1c0:	24ca0001 	addiu	t2,a2,1
 1c4:	1520fffb 	bnez	t1,1b4 <itoa_+0xc0>
 1c8:	00000000 	nop
 1cc:	10c0000f 	beqz	a2,20c <itoa_+0x118>
 1d0:	00000000 	nop
 1d4:	00a62821 	addu	a1,a1,a2
 1d8:	10000002 	b	1e4 <itoa_+0xf0>
 1dc:	00000000 	nop
 1e0:	91070000 	lbu	a3,0(t0)
 1e4:	24630001 	addiu	v1,v1,1
 1e8:	90a90000 	lbu	t1,0(a1)
 1ec:	00c32023 	subu	a0,a2,v1
 1f0:	0064202a 	slt	a0,v1,a0
 1f4:	a1090000 	sb	t1,0(t0)
 1f8:	a0a70000 	sb	a3,0(a1)
 1fc:	25080001 	addiu	t0,t0,1
 200:	24a5ffff 	addiu	a1,a1,-1
 204:	1480fff6 	bnez	a0,1e0 <itoa_+0xec>
 208:	00000000 	nop
 20c:	03e00008 	jr	ra
 210:	00000000 	nop

00000214 <IntegerToString>:
 214:	0800003d 	j	f4 <itoa_>
 218:	00000000 	nop

0000021c <PrintChar>:
 21c:	9002ff14 	lbu	v0,-236(zero)
 220:	00000000 	nop
 224:	304200ff 	andi	v0,v0,0xff
 228:	1040fffc 	beqz	v0,21c <PrintChar>
 22c:	00000000 	nop
 230:	a004ff10 	sb	a0,-240(zero)
 234:	03e00008 	jr	ra
 238:	00000000 	nop

0000023c <PrintString>:
 23c:	90830000 	lbu	v1,0(a0)
 240:	00000000 	nop
 244:	1060000c 	beqz	v1,278 <PrintString+0x3c>
 248:	00000000 	nop
 24c:	9002ff14 	lbu	v0,-236(zero)
 250:	00000000 	nop
 254:	304200ff 	andi	v0,v0,0xff
 258:	1040fffc 	beqz	v0,24c <PrintString+0x10>
 25c:	00000000 	nop
 260:	a003ff10 	sb	v1,-240(zero)
 264:	24840001 	addiu	a0,a0,1
 268:	90830000 	lbu	v1,0(a0)
 26c:	00000000 	nop
 270:	1460fff6 	bnez	v1,24c <PrintString+0x10>
 274:	00000000 	nop
 278:	03e00008 	jr	ra
 27c:	00000000 	nop

00000280 <BubbleSort>:
 280:	00005825 	move	t3,zero
 284:	24070001 	li	a3,1
 288:	00005025 	move	t2,zero
 28c:	240c0001 	li	t4,1
 290:	28ad0002 	slti	t5,a1,2
 294:	00e5102a 	slt	v0,a3,a1
 298:	10400020 	beqz	v0,31c <BubbleSort+0x9c>
 29c:	00000000 	nop
 2a0:	000a1080 	sll	v0,t2,0x2
 2a4:	00071880 	sll	v1,a3,0x2
 2a8:	00821021 	addu	v0,a0,v0
 2ac:	00831821 	addu	v1,a0,v1
 2b0:	8c690000 	lw	t1,0(v1)
 2b4:	8c460000 	lw	a2,0(v0)
 2b8:	24e70001 	addiu	a3,a3,1
 2bc:	00c94026 	xor	t0,a2,t1
 2c0:	0126302a 	slt	a2,t1,a2
 2c4:	254a0001 	addiu	t2,t2,1
 2c8:	00e5482a 	slt	t1,a3,a1
 2cc:	10c0fff1 	beqz	a2,294 <BubbleSort+0x14>
 2d0:	00000000 	nop
 2d4:	ac480000 	sw	t0,0(v0)
 2d8:	8c660000 	lw	a2,0(v1)
 2dc:	240b0001 	li	t3,1
 2e0:	01064026 	xor	t0,t0,a2
 2e4:	ac680000 	sw	t0,0(v1)
 2e8:	8c460000 	lw	a2,0(v0)
 2ec:	24630004 	addiu	v1,v1,4
 2f0:	00c84026 	xor	t0,a2,t0
 2f4:	ac480000 	sw	t0,0(v0)
 2f8:	24420004 	addiu	v0,v0,4
 2fc:	1520ffec 	bnez	t1,2b0 <BubbleSort+0x30>
 300:	00000000 	nop
 304:	24070001 	li	a3,1
 308:	00e5102a 	slt	v0,a3,a1
 30c:	00005825 	move	t3,zero
 310:	00005025 	move	t2,zero
 314:	1440ffe2 	bnez	v0,2a0 <BubbleSort+0x20>
 318:	00000000 	nop
 31c:	116c0003 	beq	t3,t4,32c <BubbleSort+0xac>
 320:	00000000 	nop
 324:	03e00008 	jr	ra
 328:	00000000 	nop
 32c:	15a0fffd 	bnez	t5,324 <BubbleSort+0xa4>
 330:	00000000 	nop
 334:	24070001 	li	a3,1
 338:	00005825 	move	t3,zero
 33c:	00005025 	move	t2,zero
 340:	1000ffd7 	b	2a0 <BubbleSort+0x20>
 344:	00000000 	nop

00000348 <main>:
 348:	27bdffc0 	addiu	sp,sp,-64
 34c:	24020021 	li	v0,33
 350:	afa20010 	sw	v0,16(sp)
 354:	2402007b 	li	v0,123
 358:	afa20014 	sw	v0,20(sp)
 35c:	24020015 	li	v0,21
 360:	afa20018 	sw	v0,24(sp)
 364:	24020929 	li	v0,2345
 368:	3c030000 	lui	v1,0x0
 36c:	afa2001c 	sw	v0,28(sp)
 370:	24020005 	li	v0,5
 374:	24630000 	addiu	v1,v1,0
 378:	24040041 	li	a0,65
 37c:	afbf003c 	sw	ra,60(sp)
 380:	afa20020 	sw	v0,32(sp)
 384:	9002ff14 	lbu	v0,-236(zero)
 388:	00000000 	nop
 38c:	304200ff 	andi	v0,v0,0xff
 390:	1040fffc 	beqz	v0,384 <main+0x3c>
 394:	00000000 	nop
 398:	a004ff10 	sb	a0,-240(zero)
 39c:	24630001 	addiu	v1,v1,1
 3a0:	90640000 	lbu	a0,0(v1)
 3a4:	00000000 	nop
 3a8:	1480fff6 	bnez	a0,384 <main+0x3c>
 3ac:	00000000 	nop
 3b0:	27ae0010 	addiu	t6,sp,16
 3b4:	27b80024 	addiu	t8,sp,36
 3b8:	01c07825 	move	t7,t6
 3bc:	240b0020 	li	t3,32
 3c0:	8de40000 	lw	a0,0(t7)
 3c4:	03002825 	move	a1,t8
 3c8:	0c00003d 	jal	f4 <itoa_>
 3cc:	00000000 	nop
 3d0:	93a30024 	lbu	v1,36(sp)
 3d4:	00000000 	nop
 3d8:	1060000d 	beqz	v1,410 <main+0xc8>
 3dc:	00000000 	nop
 3e0:	03002025 	move	a0,t8
 3e4:	9002ff14 	lbu	v0,-236(zero)
 3e8:	00000000 	nop
 3ec:	304200ff 	andi	v0,v0,0xff
 3f0:	1040fffc 	beqz	v0,3e4 <main+0x9c>
 3f4:	00000000 	nop
 3f8:	a003ff10 	sb	v1,-240(zero)
 3fc:	24840001 	addiu	a0,a0,1
 400:	90830000 	lbu	v1,0(a0)
 404:	00000000 	nop
 408:	1460fff6 	bnez	v1,3e4 <main+0x9c>
 40c:	00000000 	nop
 410:	9002ff14 	lbu	v0,-236(zero)
 414:	00000000 	nop
 418:	304200ff 	andi	v0,v0,0xff
 41c:	1040fffc 	beqz	v0,410 <main+0xc8>
 420:	00000000 	nop
 424:	25ef0004 	addiu	t7,t7,4
 428:	a00bff10 	sb	t3,-240(zero)
 42c:	170fffe4 	bne	t8,t7,3c0 <main+0x78>
 430:	00000000 	nop
 434:	9002ff14 	lbu	v0,-236(zero)
 438:	00000000 	nop
 43c:	304200ff 	andi	v0,v0,0xff
 440:	1040fffc 	beqz	v0,434 <main+0xec>
 444:	00000000 	nop
 448:	2402000a 	li	v0,10
 44c:	27a40010 	addiu	a0,sp,16
 450:	a002ff10 	sb	v0,-240(zero)
 454:	24050005 	li	a1,5
 458:	0c0000a0 	jal	280 <BubbleSort>
 45c:	00000000 	nop
 460:	3c030000 	lui	v1,0x0
 464:	24630010 	addiu	v1,v1,16
 468:	24040041 	li	a0,65
 46c:	9002ff14 	lbu	v0,-236(zero)
 470:	00000000 	nop
 474:	304200ff 	andi	v0,v0,0xff
 478:	1040fffc 	beqz	v0,46c <main+0x124>
 47c:	00000000 	nop
 480:	a004ff10 	sb	a0,-240(zero)
 484:	24630001 	addiu	v1,v1,1
 488:	90640000 	lbu	a0,0(v1)
 48c:	00000000 	nop
 490:	1480fff6 	bnez	a0,46c <main+0x124>
 494:	00000000 	nop
 498:	240b0020 	li	t3,32
 49c:	8dc40000 	lw	a0,0(t6)
 4a0:	03002825 	move	a1,t8
 4a4:	0c00003d 	jal	f4 <itoa_>
 4a8:	00000000 	nop
 4ac:	93a30024 	lbu	v1,36(sp)
 4b0:	00000000 	nop
 4b4:	1060000d 	beqz	v1,4ec <main+0x1a4>
 4b8:	00000000 	nop
 4bc:	03002025 	move	a0,t8
 4c0:	9002ff14 	lbu	v0,-236(zero)
 4c4:	00000000 	nop
 4c8:	304200ff 	andi	v0,v0,0xff
 4cc:	1040fffc 	beqz	v0,4c0 <main+0x178>
 4d0:	00000000 	nop
 4d4:	a003ff10 	sb	v1,-240(zero)
 4d8:	24840001 	addiu	a0,a0,1
 4dc:	90830000 	lbu	v1,0(a0)
 4e0:	00000000 	nop
 4e4:	1460fff6 	bnez	v1,4c0 <main+0x178>
 4e8:	00000000 	nop
 4ec:	9002ff14 	lbu	v0,-236(zero)
 4f0:	00000000 	nop
 4f4:	304200ff 	andi	v0,v0,0xff
 4f8:	1040fffc 	beqz	v0,4ec <main+0x1a4>
 4fc:	00000000 	nop
 500:	25ce0004 	addiu	t6,t6,4
 504:	a00bff10 	sb	t3,-240(zero)
 508:	15eeffe4 	bne	t7,t6,49c <main+0x154>
 50c:	00000000 	nop
 510:	9002ff14 	lbu	v0,-236(zero)
 514:	00000000 	nop
 518:	304200ff 	andi	v0,v0,0xff
 51c:	1040fffc 	beqz	v0,510 <main+0x1c8>
 520:	00000000 	nop
 524:	2402000a 	li	v0,10
 528:	a002ff10 	sb	v0,-240(zero)
 52c:	8fbf003c 	lw	ra,60(sp)
 530:	00001025 	move	v0,zero
 534:	27bd0040 	addiu	sp,sp,64
 538:	03e00008 	jr	ra
 53c:	00000000 	nop

Disassembly of section .MIPS.abiflags:

00000540 <.MIPS.abiflags>:
 540:	01200000 	0x1200000
 544:	03000001 	movf	zero,t8,$fcc0
	...
 550:	00000001 	movf	zero,zero,$fcc0
 554:	00000000 	nop

Disassembly of section .data:

00000000 <_stack_ptr-0x7fc>:
   0:	61727241 	0x61727241
   4:	6e692079 	0x6e692079
   8:	61696369 	0x61696369
   c:	00203a6c 	0x203a6c
  10:	61727241 	0x61727241
  14:	69662079 	0x69662079
  18:	3a6c616e 	xori	t4,s3,0x616e
  1c:	00000020 	add	zero,zero,zero

Disassembly of section .reginfo:

00000000 <.reginfo>:
   0:	b0000000 	0xb0000000
	...

Disassembly of section .pdr:

00000000 <.pdr>:
	...
  20:	00000010 	mfhi	zero
	...
  38:	0000001d 	0x1d
  3c:	0000001f 	0x1f
  40:	00000050 	0x50
	...
  58:	0000001d 	0x1d
  5c:	0000001f 	0x1f
  60:	000000d4 	0xd4
	...
  78:	0000001d 	0x1d
  7c:	0000001f 	0x1f
  80:	000000f4 	teq	zero,zero,0x3
	...
  98:	0000001d 	0x1d
  9c:	0000001f 	0x1f
  a0:	00000214 	0x214
	...
  b8:	0000001d 	0x1d
  bc:	0000001f 	0x1f
  c0:	0000021c 	0x21c
	...
  d8:	0000001d 	0x1d
  dc:	0000001f 	0x1f
  e0:	0000023c 	0x23c
	...
  f8:	0000001d 	0x1d
  fc:	0000001f 	0x1f
 100:	00000280 	sll	zero,zero,0xa
	...
 118:	0000001d 	0x1d
 11c:	0000001f 	0x1f
 120:	00000348 	0x348
 124:	80000000 	lb	zero,0(zero)
 128:	fffffffc 	sdc3	$31,-4(ra)
	...
 134:	00000040 	ssnop
 138:	0000001d 	0x1d
 13c:	0000001f 	0x1f

Disassembly of section .gnu.attributes:

00000000 <.gnu.attributes>:
   0:	00000f41 	0xf41
   4:	756e6700 	jalx	5b99c00 <_stack_ptr+0x5b99404>
   8:	00070100 	sll	zero,a3,0x4
   c:	03040000 	0x3040000

Disassembly of section .comment:

00000000 <.comment>:
   0:	3a434347 	xori	v1,s2,0x4347
   4:	6f432820 	0x6f432820
   8:	63736564 	0x63736564
   c:	20657061 	addi	a1,v1,28769
  10:	20554e47 	addi	s5,v0,20039
  14:	6c6f6f54 	0x6c6f6f54
  18:	30322073 	andi	s2,at,0x2073
  1c:	302e3931 	andi	t6,at,0x3931
  20:	34302d32 	ori	s0,at,0x2d32
  24:	726f6620 	0x726f6620
  28:	50494d20 	beql	v0,t1,134ac <_stack_ptr+0x12cb0>
  2c:	4d492053 	0x4d492053
  30:	61422047 	0x61422047
  34:	4d206572 	0x4d206572
  38:	6c617465 	0x6c617465
  3c:	2e372029 	sltiu	s7,s1,8233
  40:	00302e34 	teq	at,s0,0xb8
