
main.elf:     file format elf32-tradlittlemips


Disassembly of section .text:

00400000 <entry_point>:
  400000:	3c1d1001 	lui	sp,0x1001
  400004:	27bd0ffc 	addiu	sp,sp,4092
  400008:	0c100078 	jal	4001e0 <main>

0040000c <loop>:
  40000c:	08100003 	j	40000c <loop>

00400010 <setup_io>:
  400010:	3c021001 	lui	v0,0x1001
  400014:	8c440004 	lw	a0,4(v0)
  400018:	3c021001 	lui	v0,0x1001
  40001c:	8c430008 	lw	v1,8(v0)
  400020:	3c021001 	lui	v0,0x1001
  400024:	8c42000c 	lw	v0,12(v0)
  400028:	240500ff 	li	a1,255
  40002c:	ac850000 	sw	a1,0(a0)
  400030:	ac600000 	sw	zero,0(v1)
  400034:	ac400000 	sw	zero,0(v0)
  400038:	03e00008 	jr	ra
  40003c:	00000000 	nop

00400040 <delay>:
  400040:	1880001b 	blez	a0,4000b0 <delay+0x70>
  400044:	00000000 	nop
  400048:	00003025 	move	a2,zero
  40004c:	24030001 	li	v1,1
  400050:	18a00012 	blez	a1,40009c <delay+0x5c>
  400054:	00000000 	nop
  400058:	27bdfff8 	addiu	sp,sp,-8
  40005c:	00001025 	move	v0,zero
  400060:	24420001 	addiu	v0,v0,1
  400064:	afa30000 	sw	v1,0(sp)
  400068:	14a2fffd 	bne	a1,v0,400060 <delay+0x20>
  40006c:	00000000 	nop
  400070:	24c60001 	addiu	a2,a2,1
  400074:	10860006 	beq	a0,a2,400090 <delay+0x50>
  400078:	00000000 	nop
  40007c:	1ca0fff7 	bgtz	a1,40005c <delay+0x1c>
  400080:	00000000 	nop
  400084:	24c60001 	addiu	a2,a2,1
  400088:	1486fffc 	bne	a0,a2,40007c <delay+0x3c>
  40008c:	00000000 	nop
  400090:	27bd0008 	addiu	sp,sp,8
  400094:	03e00008 	jr	ra
  400098:	00000000 	nop
  40009c:	24c60001 	addiu	a2,a2,1
  4000a0:	1486ffeb 	bne	a0,a2,400050 <delay+0x10>
  4000a4:	00000000 	nop
  4000a8:	03e00008 	jr	ra
  4000ac:	00000000 	nop
  4000b0:	03e00008 	jr	ra
  4000b4:	00000000 	nop

004000b8 <counter2led>:
  4000b8:	2c820010 	sltiu	v0,a0,16
  4000bc:	1040000a 	beqz	v0,4000e8 <counter2led+0x30>
  4000c0:	00000000 	nop
  4000c4:	00041080 	sll	v0,a0,0x2
  4000c8:	3c041001 	lui	a0,0x1001
  4000cc:	24840010 	addiu	a0,a0,16
  4000d0:	00822021 	addu	a0,a0,v0
  4000d4:	8c820000 	lw	v0,0(a0)
  4000d8:	00000000 	nop
  4000dc:	00400008 	jr	v0
  4000e0:	00000000 	nop
  4000e4:	a0a00000 	sb	zero,0(a1)
  4000e8:	03e00008 	jr	ra
  4000ec:	00000000 	nop
  4000f0:	24020001 	li	v0,1
  4000f4:	a0a20000 	sb	v0,0(a1)
  4000f8:	03e00008 	jr	ra
  4000fc:	00000000 	nop
  400100:	2402ff80 	li	v0,-128
  400104:	a0a20000 	sb	v0,0(a1)
  400108:	03e00008 	jr	ra
  40010c:	00000000 	nop
  400110:	2402ffc0 	li	v0,-64
  400114:	a0a20000 	sb	v0,0(a1)
  400118:	03e00008 	jr	ra
  40011c:	00000000 	nop
  400120:	2402ffe0 	li	v0,-32
  400124:	a0a20000 	sb	v0,0(a1)
  400128:	03e00008 	jr	ra
  40012c:	00000000 	nop
  400130:	2402fff0 	li	v0,-16
  400134:	a0a20000 	sb	v0,0(a1)
  400138:	03e00008 	jr	ra
  40013c:	00000000 	nop
  400140:	2402fff8 	li	v0,-8
  400144:	a0a20000 	sb	v0,0(a1)
  400148:	03e00008 	jr	ra
  40014c:	00000000 	nop
  400150:	2402fffc 	li	v0,-4
  400154:	a0a20000 	sb	v0,0(a1)
  400158:	03e00008 	jr	ra
  40015c:	00000000 	nop
  400160:	2402fffe 	li	v0,-2
  400164:	a0a20000 	sb	v0,0(a1)
  400168:	03e00008 	jr	ra
  40016c:	00000000 	nop
  400170:	2402ffff 	li	v0,-1
  400174:	a0a20000 	sb	v0,0(a1)
  400178:	03e00008 	jr	ra
  40017c:	00000000 	nop
  400180:	2402007f 	li	v0,127
  400184:	a0a20000 	sb	v0,0(a1)
  400188:	03e00008 	jr	ra
  40018c:	00000000 	nop
  400190:	2402003f 	li	v0,63
  400194:	a0a20000 	sb	v0,0(a1)
  400198:	03e00008 	jr	ra
  40019c:	00000000 	nop
  4001a0:	2402001f 	li	v0,31
  4001a4:	a0a20000 	sb	v0,0(a1)
  4001a8:	03e00008 	jr	ra
  4001ac:	00000000 	nop
  4001b0:	2402000f 	li	v0,15
  4001b4:	a0a20000 	sb	v0,0(a1)
  4001b8:	03e00008 	jr	ra
  4001bc:	00000000 	nop
  4001c0:	24020007 	li	v0,7
  4001c4:	a0a20000 	sb	v0,0(a1)
  4001c8:	03e00008 	jr	ra
  4001cc:	00000000 	nop
  4001d0:	24020003 	li	v0,3
  4001d4:	a0a20000 	sb	v0,0(a1)
  4001d8:	03e00008 	jr	ra
  4001dc:	00000000 	nop

004001e0 <main>:
  4001e0:	27bdffe0 	addiu	sp,sp,-32
  4001e4:	3c061001 	lui	a2,0x1001
  4001e8:	3c081001 	lui	t0,0x1001
  4001ec:	24030001 	li	v1,1
  4001f0:	24070010 	li	a3,16
  4001f4:	a3a00014 	sb	zero,20(sp)
  4001f8:	afbf001c 	sw	ra,28(sp)
  4001fc:	8cc40000 	lw	a0,0(a2)
  400200:	27a50014 	addiu	a1,sp,20
  400204:	0c10002e 	jal	4000b8 <counter2led>
  400208:	00000000 	nop
  40020c:	8d02000c 	lw	v0,12(t0)
  400210:	93a50014 	lbu	a1,20(sp)
  400214:	3404ffff 	li	a0,0xffff
  400218:	ac450000 	sw	a1,0(v0)
  40021c:	24020030 	li	v0,48
  400220:	2442ffff 	addiu	v0,v0,-1
  400224:	afa30010 	sw	v1,16(sp)
  400228:	1440fffd 	bnez	v0,400220 <main+0x40>
  40022c:	00000000 	nop
  400230:	2484ffff 	addiu	a0,a0,-1
  400234:	1480fff9 	bnez	a0,40021c <main+0x3c>
  400238:	00000000 	nop
  40023c:	8cc20000 	lw	v0,0(a2)
  400240:	00000000 	nop
  400244:	24420001 	addiu	v0,v0,1
  400248:	acc20000 	sw	v0,0(a2)
  40024c:	8cc20000 	lw	v0,0(a2)
  400250:	00000000 	nop
  400254:	1447ffe9 	bne	v0,a3,4001fc <main+0x1c>
  400258:	00000000 	nop
  40025c:	acc00000 	sw	zero,0(a2)
  400260:	1000ffe6 	b	4001fc <main+0x1c>
  400264:	00000000 	nop

Disassembly of section .MIPS.abiflags:

00400268 <.MIPS.abiflags>:
  400268:	01200000 	0x1200000
  40026c:	03000001 	movf	zero,t8,$fcc0
	...
  400278:	00000001 	movf	zero,zero,$fcc0
  40027c:	00000000 	nop

Disassembly of section .data:

10010000 <counter>:
10010000:	00000000 	nop

10010004 <enable>:
10010004:	80000200 	lb	zero,512(zero)

10010008 <config>:
10010008:	80000210 	lb	zero,528(zero)

1001000c <data>:
1001000c:	80000220 	lb	zero,544(zero)
10010010:	00400100 	0x400100
10010014:	00400110 	0x400110
10010018:	00400120 	0x400120
1001001c:	00400130 	tge	v0,zero,0x4
10010020:	00400140 	0x400140
10010024:	00400150 	0x400150
10010028:	00400160 	0x400160
1001002c:	00400170 	tge	v0,zero,0x5
10010030:	00400180 	0x400180
10010034:	00400190 	0x400190
10010038:	004001a0 	0x4001a0
1001003c:	004001b0 	tge	v0,zero,0x6
10010040:	004001c0 	0x4001c0
10010044:	004001d0 	0x4001d0
10010048:	004000f0 	tge	v0,zero,0x3
1001004c:	004000e4 	0x4000e4

Disassembly of section .reginfo:

00000000 <.reginfo>:
   0:	b0000000 	0xb0000000
	...

Disassembly of section .pdr:

00000000 <.pdr>:
   0:	00400000 	0x400000
	...
  20:	00400010 	0x400010
	...
  38:	0000001d 	0x1d
  3c:	0000001f 	0x1f
  40:	00400040 	0x400040
	...
  54:	00000008 	jr	zero
  58:	0000001d 	0x1d
  5c:	0000001f 	0x1f
  60:	004000b8 	0x4000b8
	...
  78:	0000001d 	0x1d
  7c:	0000001f 	0x1f
  80:	004001e0 	0x4001e0
  84:	80000000 	lb	zero,0(zero)
  88:	fffffffc 	sdc3	$31,-4(ra)
	...
  94:	00000020 	add	zero,zero,zero
  98:	0000001d 	0x1d
  9c:	0000001f 	0x1f

Disassembly of section .gnu.attributes:

00000000 <.gnu.attributes>:
   0:	00000f41 	0xf41
   4:	756e6700 	jalx	5b99c00 <main+0x5799a20>
   8:	00070100 	sll	zero,a3,0x4
   c:	03040000 	0x3040000

Disassembly of section .comment:

00000000 <.comment>:
   0:	3a434347 	xori	v1,s2,0x4347
   4:	6f432820 	0x6f432820
   8:	63736564 	0x63736564
   c:	20657061 	addi	a1,v1,28769
  10:	20554e47 	addi	s5,v0,20039
  14:	6c6f6f54 	0x6c6f6f54
  18:	30322073 	andi	s2,at,0x2073
  1c:	302e3931 	andi	t6,at,0x3931
  20:	34302d32 	ori	s0,at,0x2d32
  24:	726f6620 	0x726f6620
  28:	50494d20 	beql	v0,t1,134ac <entry_point-0x3ecb54>
  2c:	4d492053 	0x4d492053
  30:	61422047 	0x61422047
  34:	4d206572 	0x4d206572
  38:	6c617465 	0x6c617465
  3c:	2e372029 	sltiu	s7,s1,8233
  40:	00302e34 	teq	at,s0,0xb8
