
main.elf:     file format elf32-tradlittlemips


Disassembly of section .text:

00000000 <entry_point>:
   0:	3c1d0000 	lui	sp,0x0
   4:	27bd0ffc 	addiu	sp,sp,4092
   8:	3c080000 	lui	t0,0x0
   c:	25080024 	addiu	t0,t0,36
  10:	4088f000 	mtc0	t0,c0_errorepc
  14:	0c00030f 	jal	c3c <main>
  18:	00000000 	nop

0000001c <loop>:
  1c:	08000007 	j	1c <loop>
  20:	00000000 	nop

00000024 <ExceptionServiceRoutine>:
  24:	27bdff80 	addiu	sp,sp,-128
  28:	afa10000 	sw	at,0(sp)
  2c:	afa20004 	sw	v0,4(sp)
  30:	afa30008 	sw	v1,8(sp)
  34:	afa4000c 	sw	a0,12(sp)
  38:	afa50010 	sw	a1,16(sp)
  3c:	afa60014 	sw	a2,20(sp)
  40:	afa70018 	sw	a3,24(sp)
  44:	afa8001c 	sw	t0,28(sp)
  48:	afa90020 	sw	t1,32(sp)
  4c:	afaa0024 	sw	t2,36(sp)
  50:	afab0028 	sw	t3,40(sp)
  54:	afac002c 	sw	t4,44(sp)
  58:	afad0030 	sw	t5,48(sp)
  5c:	afae0034 	sw	t6,52(sp)
  60:	afaf0038 	sw	t7,56(sp)
  64:	afb8003c 	sw	t8,60(sp)
  68:	afb90040 	sw	t9,64(sp)
  6c:	afb00044 	sw	s0,68(sp)
  70:	afb10048 	sw	s1,72(sp)
  74:	afb2004c 	sw	s2,76(sp)
  78:	afb30050 	sw	s3,80(sp)
  7c:	afb40054 	sw	s4,84(sp)
  80:	afb50058 	sw	s5,88(sp)
  84:	afb6005c 	sw	s6,92(sp)
  88:	afb70060 	sw	s7,96(sp)
  8c:	afbc0064 	sw	gp,100(sp)
  90:	afbe0068 	sw	s8,104(sp)
  94:	afbf0070 	sw	ra,112(sp)
  98:	3c080000 	lui	t0,0x0
  9c:	25080014 	addiu	t0,t0,20
  a0:	00025880 	sll	t3,v0,0x2
  a4:	010b6021 	addu	t4,t0,t3
  a8:	8d8d0000 	lw	t5,0(t4)
  ac:	01a0f809 	jalr	t5
  b0:	00000000 	nop
  b4:	0800002e 	j	b8 <RestoreContext>

000000b8 <RestoreContext>:
  b8:	8fa20004 	lw	v0,4(sp)
  bc:	8fa30008 	lw	v1,8(sp)
  c0:	8fa4000c 	lw	a0,12(sp)
  c4:	8fa50010 	lw	a1,16(sp)
  c8:	8fa60014 	lw	a2,20(sp)
  cc:	8fa70018 	lw	a3,24(sp)
  d0:	8fa8001c 	lw	t0,28(sp)
  d4:	8fa90020 	lw	t1,32(sp)
  d8:	8faa0024 	lw	t2,36(sp)
  dc:	8fab0028 	lw	t3,40(sp)
  e0:	8fac002c 	lw	t4,44(sp)
  e4:	8fad0030 	lw	t5,48(sp)
  e8:	8fae0034 	lw	t6,52(sp)
  ec:	8faf0038 	lw	t7,56(sp)
  f0:	8fb8003c 	lw	t8,60(sp)
  f4:	8fb90040 	lw	t9,64(sp)
  f8:	8fb00044 	lw	s0,68(sp)
  fc:	8fb10048 	lw	s1,72(sp)
 100:	8fb2004c 	lw	s2,76(sp)
 104:	8fb30050 	lw	s3,80(sp)
 108:	8fb40054 	lw	s4,84(sp)
 10c:	8fb50058 	lw	s5,88(sp)
 110:	8fb6005c 	lw	s6,92(sp)
 114:	8fb70060 	lw	s7,96(sp)
 118:	8fbc0064 	lw	gp,100(sp)
 11c:	8fbe0068 	lw	s8,104(sp)
 120:	8fbf0070 	lw	ra,112(sp)
 124:	27bd0080 	addiu	sp,sp,128
 128:	42000018 	eret

0000012c <PrintString>:
 12c:	24020000 	li	v0,0
 130:	0000000c 	syscall
 134:	03e00008 	jr	ra

00000138 <WriteDataPortIO>:
 138:	24020001 	li	v0,1
 13c:	3c058000 	lui	a1,0x8000
 140:	34a50020 	ori	a1,a1,0x20
 144:	0000000c 	syscall
 148:	03e00008 	jr	ra

0000014c <EnablePortIOBits>:
 14c:	24020001 	li	v0,1
 150:	3c058000 	lui	a1,0x8000
 154:	34a50000 	ori	a1,a1,0x0
 158:	0000000c 	syscall
 15c:	03e00008 	jr	ra

00000160 <ConfigPortIOBitsDirection>:
 160:	24020001 	li	v0,1
 164:	3c058000 	lui	a1,0x8000
 168:	34a50010 	ori	a1,a1,0x10
 16c:	0000000c 	syscall
 170:	03e00008 	jr	ra

00000174 <ReadDataPortIO>:
 174:	24020002 	li	v0,2
 178:	3c058000 	lui	a1,0x8000
 17c:	34a50020 	ori	a1,a1,0x20
 180:	0000000c 	syscall
 184:	03e00008 	jr	ra

00000188 <PrintUART>:
 188:	27bdfff8 	addiu	sp,sp,-8
 18c:	afbe0004 	sw	s8,4(sp)
 190:	03a0f025 	move	s8,sp
 194:	afc40008 	sw	a0,8(s8)
 198:	10000013 	b	1e8 <PrintUART+0x60>
 19c:	00000000 	nop
 1a0:	00000000 	nop
 1a4:	3c020000 	lui	v0,0x0
 1a8:	8c420004 	lw	v0,4(v0)
 1ac:	00000000 	nop
 1b0:	90420000 	lbu	v0,0(v0)
 1b4:	00000000 	nop
 1b8:	304200ff 	andi	v0,v0,0xff
 1bc:	1040fff9 	beqz	v0,1a4 <PrintUART+0x1c>
 1c0:	00000000 	nop
 1c4:	8fc20008 	lw	v0,8(s8)
 1c8:	00000000 	nop
 1cc:	24430001 	addiu	v1,v0,1
 1d0:	afc30008 	sw	v1,8(s8)
 1d4:	3c030000 	lui	v1,0x0
 1d8:	8c630000 	lw	v1,0(v1)
 1dc:	90420000 	lbu	v0,0(v0)
 1e0:	00000000 	nop
 1e4:	a0620000 	sb	v0,0(v1)
 1e8:	8fc20008 	lw	v0,8(s8)
 1ec:	00000000 	nop
 1f0:	90420000 	lbu	v0,0(v0)
 1f4:	00000000 	nop
 1f8:	1440ffe9 	bnez	v0,1a0 <PrintUART+0x18>
 1fc:	00000000 	nop
	...
 208:	03c0e825 	move	sp,s8
 20c:	8fbe0004 	lw	s8,4(sp)
 210:	27bd0008 	addiu	sp,sp,8
 214:	03e00008 	jr	ra
 218:	00000000 	nop

0000021c <WriteDeviceRegister>:
 21c:	27bdfff8 	addiu	sp,sp,-8
 220:	afbe0004 	sw	s8,4(sp)
 224:	03a0f025 	move	s8,sp
 228:	afc40008 	sw	a0,8(s8)
 22c:	afc5000c 	sw	a1,12(s8)
 230:	8fc3000c 	lw	v1,12(s8)
 234:	3c028000 	lui	v0,0x8000
 238:	34420020 	ori	v0,v0,0x20
 23c:	14620008 	bne	v1,v0,260 <WriteDeviceRegister+0x44>
 240:	00000000 	nop
 244:	3c020000 	lui	v0,0x0
 248:	8c420008 	lw	v0,8(v0)
 24c:	8fc30008 	lw	v1,8(s8)
 250:	00000000 	nop
 254:	ac430000 	sw	v1,0(v0)
 258:	10000016 	b	2b4 <WriteDeviceRegister+0x98>
 25c:	00000000 	nop
 260:	8fc3000c 	lw	v1,12(s8)
 264:	3c028000 	lui	v0,0x8000
 268:	14620008 	bne	v1,v0,28c <WriteDeviceRegister+0x70>
 26c:	00000000 	nop
 270:	3c020000 	lui	v0,0x0
 274:	8c42000c 	lw	v0,12(v0)
 278:	8fc30008 	lw	v1,8(s8)
 27c:	00000000 	nop
 280:	ac430000 	sw	v1,0(v0)
 284:	1000000b 	b	2b4 <WriteDeviceRegister+0x98>
 288:	00000000 	nop
 28c:	8fc3000c 	lw	v1,12(s8)
 290:	3c028000 	lui	v0,0x8000
 294:	34420010 	ori	v0,v0,0x10
 298:	14620006 	bne	v1,v0,2b4 <WriteDeviceRegister+0x98>
 29c:	00000000 	nop
 2a0:	3c020000 	lui	v0,0x0
 2a4:	8c420010 	lw	v0,16(v0)
 2a8:	8fc30008 	lw	v1,8(s8)
 2ac:	00000000 	nop
 2b0:	ac430000 	sw	v1,0(v0)
 2b4:	00000000 	nop
 2b8:	03c0e825 	move	sp,s8
 2bc:	8fbe0004 	lw	s8,4(sp)
 2c0:	27bd0008 	addiu	sp,sp,8
 2c4:	03e00008 	jr	ra
 2c8:	00000000 	nop

000002cc <ReadDeviceRegister>:
 2cc:	27bdfff8 	addiu	sp,sp,-8
 2d0:	afbe0004 	sw	s8,4(sp)
 2d4:	03a0f025 	move	s8,sp
 2d8:	afc40008 	sw	a0,8(s8)
 2dc:	afc5000c 	sw	a1,12(s8)
 2e0:	8fc3000c 	lw	v1,12(s8)
 2e4:	3c028000 	lui	v0,0x8000
 2e8:	34420020 	ori	v0,v0,0x20
 2ec:	1462000a 	bne	v1,v0,318 <ReadDeviceRegister+0x4c>
 2f0:	00000000 	nop
 2f4:	3c020000 	lui	v0,0x0
 2f8:	8c420008 	lw	v0,8(v0)
 2fc:	00000000 	nop
 300:	8c430000 	lw	v1,0(v0)
 304:	8fc20008 	lw	v0,8(s8)
 308:	00000000 	nop
 30c:	ac430000 	sw	v1,0(v0)
 310:	1000001a 	b	37c <ReadDeviceRegister+0xb0>
 314:	00000000 	nop
 318:	8fc3000c 	lw	v1,12(s8)
 31c:	3c028000 	lui	v0,0x8000
 320:	1462000a 	bne	v1,v0,34c <ReadDeviceRegister+0x80>
 324:	00000000 	nop
 328:	3c020000 	lui	v0,0x0
 32c:	8c42000c 	lw	v0,12(v0)
 330:	00000000 	nop
 334:	8c430000 	lw	v1,0(v0)
 338:	8fc20008 	lw	v0,8(s8)
 33c:	00000000 	nop
 340:	ac430000 	sw	v1,0(v0)
 344:	1000000d 	b	37c <ReadDeviceRegister+0xb0>
 348:	00000000 	nop
 34c:	8fc3000c 	lw	v1,12(s8)
 350:	3c028000 	lui	v0,0x8000
 354:	34420010 	ori	v0,v0,0x10
 358:	14620008 	bne	v1,v0,37c <ReadDeviceRegister+0xb0>
 35c:	00000000 	nop
 360:	3c020000 	lui	v0,0x0
 364:	8c420010 	lw	v0,16(v0)
 368:	00000000 	nop
 36c:	8c430000 	lw	v1,0(v0)
 370:	8fc20008 	lw	v0,8(s8)
 374:	00000000 	nop
 378:	ac430000 	sw	v1,0(v0)
 37c:	00000000 	nop
 380:	03c0e825 	move	sp,s8
 384:	8fbe0004 	lw	s8,4(sp)
 388:	27bd0008 	addiu	sp,sp,8
 38c:	03e00008 	jr	ra
 390:	00000000 	nop

00000394 <strlen_>:
 394:	27bdfff0 	addiu	sp,sp,-16
 398:	afbe000c 	sw	s8,12(sp)
 39c:	03a0f025 	move	s8,sp
 3a0:	afc40010 	sw	a0,16(s8)
 3a4:	afc00000 	sw	zero,0(s8)
 3a8:	10000005 	b	3c0 <strlen_+0x2c>
 3ac:	00000000 	nop
 3b0:	8fc20000 	lw	v0,0(s8)
 3b4:	00000000 	nop
 3b8:	24420001 	addiu	v0,v0,1
 3bc:	afc20000 	sw	v0,0(s8)
 3c0:	8fc20000 	lw	v0,0(s8)
 3c4:	8fc30010 	lw	v1,16(s8)
 3c8:	00000000 	nop
 3cc:	00621021 	addu	v0,v1,v0
 3d0:	90420000 	lbu	v0,0(v0)
 3d4:	00000000 	nop
 3d8:	1440fff5 	bnez	v0,3b0 <strlen_+0x1c>
 3dc:	00000000 	nop
 3e0:	8fc20000 	lw	v0,0(s8)
 3e4:	03c0e825 	move	sp,s8
 3e8:	8fbe000c 	lw	s8,12(sp)
 3ec:	27bd0010 	addiu	sp,sp,16
 3f0:	03e00008 	jr	ra
 3f4:	00000000 	nop

000003f8 <reverse>:
 3f8:	27bdffd8 	addiu	sp,sp,-40
 3fc:	afbf0024 	sw	ra,36(sp)
 400:	afbe0020 	sw	s8,32(sp)
 404:	03a0f025 	move	s8,sp
 408:	afc40028 	sw	a0,40(s8)
 40c:	afc00010 	sw	zero,16(s8)
 410:	8fc40028 	lw	a0,40(s8)
 414:	0c0000e5 	jal	394 <strlen_>
 418:	00000000 	nop
 41c:	2442ffff 	addiu	v0,v0,-1
 420:	afc20014 	sw	v0,20(s8)
 424:	10000023 	b	4b4 <reverse+0xbc>
 428:	00000000 	nop
 42c:	8fc20010 	lw	v0,16(s8)
 430:	8fc30028 	lw	v1,40(s8)
 434:	00000000 	nop
 438:	00621021 	addu	v0,v1,v0
 43c:	90420000 	lbu	v0,0(v0)
 440:	00000000 	nop
 444:	afc20018 	sw	v0,24(s8)
 448:	8fc20014 	lw	v0,20(s8)
 44c:	8fc30028 	lw	v1,40(s8)
 450:	00000000 	nop
 454:	00621821 	addu	v1,v1,v0
 458:	8fc20010 	lw	v0,16(s8)
 45c:	8fc40028 	lw	a0,40(s8)
 460:	00000000 	nop
 464:	00821021 	addu	v0,a0,v0
 468:	90630000 	lbu	v1,0(v1)
 46c:	00000000 	nop
 470:	a0430000 	sb	v1,0(v0)
 474:	8fc20014 	lw	v0,20(s8)
 478:	8fc30028 	lw	v1,40(s8)
 47c:	00000000 	nop
 480:	00621021 	addu	v0,v1,v0
 484:	8fc30018 	lw	v1,24(s8)
 488:	00000000 	nop
 48c:	306300ff 	andi	v1,v1,0xff
 490:	a0430000 	sb	v1,0(v0)
 494:	8fc20010 	lw	v0,16(s8)
 498:	00000000 	nop
 49c:	24420001 	addiu	v0,v0,1
 4a0:	afc20010 	sw	v0,16(s8)
 4a4:	8fc20014 	lw	v0,20(s8)
 4a8:	00000000 	nop
 4ac:	2442ffff 	addiu	v0,v0,-1
 4b0:	afc20014 	sw	v0,20(s8)
 4b4:	8fc30010 	lw	v1,16(s8)
 4b8:	8fc20014 	lw	v0,20(s8)
 4bc:	00000000 	nop
 4c0:	0062102a 	slt	v0,v1,v0
 4c4:	1440ffd9 	bnez	v0,42c <reverse+0x34>
 4c8:	00000000 	nop
	...
 4d4:	03c0e825 	move	sp,s8
 4d8:	8fbf0024 	lw	ra,36(sp)
 4dc:	8fbe0020 	lw	s8,32(sp)
 4e0:	27bd0028 	addiu	sp,sp,40
 4e4:	03e00008 	jr	ra
 4e8:	00000000 	nop

000004ec <abs_>:
 4ec:	27bdfff8 	addiu	sp,sp,-8
 4f0:	afbe0004 	sw	s8,4(sp)
 4f4:	03a0f025 	move	s8,sp
 4f8:	afc40008 	sw	a0,8(s8)
 4fc:	8fc20008 	lw	v0,8(s8)
 500:	00000000 	nop
 504:	00021fc3 	sra	v1,v0,0x1f
 508:	8fc20008 	lw	v0,8(s8)
 50c:	00000000 	nop
 510:	00621026 	xor	v0,v1,v0
 514:	00431023 	subu	v0,v0,v1
 518:	03c0e825 	move	sp,s8
 51c:	8fbe0004 	lw	s8,4(sp)
 520:	27bd0008 	addiu	sp,sp,8
 524:	03e00008 	jr	ra
 528:	00000000 	nop

0000052c <itoa_>:
 52c:	27bdffe0 	addiu	sp,sp,-32
 530:	afbf001c 	sw	ra,28(sp)
 534:	afbe0018 	sw	s8,24(sp)
 538:	03a0f025 	move	s8,sp
 53c:	afc40020 	sw	a0,32(s8)
 540:	afc50024 	sw	a1,36(s8)
 544:	afc00010 	sw	zero,16(s8)
 548:	8fc20020 	lw	v0,32(s8)
 54c:	00000000 	nop
 550:	afc20014 	sw	v0,20(s8)
 554:	8fc20014 	lw	v0,20(s8)
 558:	00000000 	nop
 55c:	04410005 	bgez	v0,574 <itoa_+0x48>
 560:	00000000 	nop
 564:	8fc20020 	lw	v0,32(s8)
 568:	00000000 	nop
 56c:	00021023 	negu	v0,v0
 570:	afc20020 	sw	v0,32(s8)
 574:	8fc30020 	lw	v1,32(s8)
 578:	3c026666 	lui	v0,0x6666
 57c:	34426667 	ori	v0,v0,0x6667
 580:	00620018 	mult	v1,v0
 584:	00001010 	mfhi	v0
 588:	00022083 	sra	a0,v0,0x2
 58c:	000317c3 	sra	v0,v1,0x1f
 590:	00822023 	subu	a0,a0,v0
 594:	00801025 	move	v0,a0
 598:	00021080 	sll	v0,v0,0x2
 59c:	00441021 	addu	v0,v0,a0
 5a0:	00021040 	sll	v0,v0,0x1
 5a4:	00622023 	subu	a0,v1,v0
 5a8:	0c00013b 	jal	4ec <abs_>
 5ac:	00000000 	nop
 5b0:	304300ff 	andi	v1,v0,0xff
 5b4:	8fc20010 	lw	v0,16(s8)
 5b8:	00000000 	nop
 5bc:	24440001 	addiu	a0,v0,1
 5c0:	afc40010 	sw	a0,16(s8)
 5c4:	00402025 	move	a0,v0
 5c8:	8fc20024 	lw	v0,36(s8)
 5cc:	00000000 	nop
 5d0:	00441021 	addu	v0,v0,a0
 5d4:	24630030 	addiu	v1,v1,48
 5d8:	306300ff 	andi	v1,v1,0xff
 5dc:	a0430000 	sb	v1,0(v0)
 5e0:	8fc20020 	lw	v0,32(s8)
 5e4:	3c036666 	lui	v1,0x6666
 5e8:	34636667 	ori	v1,v1,0x6667
 5ec:	00430018 	mult	v0,v1
 5f0:	00001810 	mfhi	v1
 5f4:	00031883 	sra	v1,v1,0x2
 5f8:	000217c3 	sra	v0,v0,0x1f
 5fc:	00621023 	subu	v0,v1,v0
 600:	afc20020 	sw	v0,32(s8)
 604:	8fc20020 	lw	v0,32(s8)
 608:	00000000 	nop
 60c:	1440ffd9 	bnez	v0,574 <itoa_+0x48>
 610:	00000000 	nop
 614:	8fc20014 	lw	v0,20(s8)
 618:	00000000 	nop
 61c:	0441000b 	bgez	v0,64c <itoa_+0x120>
 620:	00000000 	nop
 624:	8fc20010 	lw	v0,16(s8)
 628:	00000000 	nop
 62c:	24430001 	addiu	v1,v0,1
 630:	afc30010 	sw	v1,16(s8)
 634:	00401825 	move	v1,v0
 638:	8fc20024 	lw	v0,36(s8)
 63c:	00000000 	nop
 640:	00431021 	addu	v0,v0,v1
 644:	2403002d 	li	v1,45
 648:	a0430000 	sb	v1,0(v0)
 64c:	8fc20010 	lw	v0,16(s8)
 650:	8fc30024 	lw	v1,36(s8)
 654:	00000000 	nop
 658:	00621021 	addu	v0,v1,v0
 65c:	a0400000 	sb	zero,0(v0)
 660:	8fc40024 	lw	a0,36(s8)
 664:	0c0000fe 	jal	3f8 <reverse>
 668:	00000000 	nop
 66c:	8fc20010 	lw	v0,16(s8)
 670:	03c0e825 	move	sp,s8
 674:	8fbf001c 	lw	ra,28(sp)
 678:	8fbe0018 	lw	s8,24(sp)
 67c:	27bd0020 	addiu	sp,sp,32
 680:	03e00008 	jr	ra
 684:	00000000 	nop

00000688 <IntegerToString>:
 688:	27bdffe8 	addiu	sp,sp,-24
 68c:	afbf0014 	sw	ra,20(sp)
 690:	afbe0010 	sw	s8,16(sp)
 694:	03a0f025 	move	s8,sp
 698:	afc40018 	sw	a0,24(s8)
 69c:	afc5001c 	sw	a1,28(s8)
 6a0:	8fc5001c 	lw	a1,28(s8)
 6a4:	8fc40018 	lw	a0,24(s8)
 6a8:	0c00014b 	jal	52c <itoa_>
 6ac:	00000000 	nop
 6b0:	00000000 	nop
 6b4:	03c0e825 	move	sp,s8
 6b8:	8fbf0014 	lw	ra,20(sp)
 6bc:	8fbe0010 	lw	s8,16(sp)
 6c0:	27bd0018 	addiu	sp,sp,24
 6c4:	03e00008 	jr	ra
 6c8:	00000000 	nop

000006cc <integer_to_hex>:
 6cc:	27bdfff8 	addiu	sp,sp,-8
 6d0:	afbe0004 	sw	s8,4(sp)
 6d4:	03a0f025 	move	s8,sp
 6d8:	afc40008 	sw	a0,8(s8)
 6dc:	afc5000c 	sw	a1,12(s8)
 6e0:	8fc30008 	lw	v1,8(s8)
 6e4:	00000000 	nop
 6e8:	000317c3 	sra	v0,v1,0x1f
 6ec:	00021702 	srl	v0,v0,0x1c
 6f0:	00621821 	addu	v1,v1,v0
 6f4:	3063000f 	andi	v1,v1,0xf
 6f8:	00621023 	subu	v0,v1,v0
 6fc:	00401825 	move	v1,v0
 700:	8fc2000c 	lw	v0,12(s8)
 704:	00000000 	nop
 708:	24420001 	addiu	v0,v0,1
 70c:	306300ff 	andi	v1,v1,0xff
 710:	a0430000 	sb	v1,0(v0)
 714:	8fc20008 	lw	v0,8(s8)
 718:	00000000 	nop
 71c:	00021fc3 	sra	v1,v0,0x1f
 720:	3063000f 	andi	v1,v1,0xf
 724:	00621021 	addu	v0,v1,v0
 728:	00021103 	sra	v0,v0,0x4
 72c:	00401825 	move	v1,v0
 730:	000317c3 	sra	v0,v1,0x1f
 734:	00021702 	srl	v0,v0,0x1c
 738:	00621821 	addu	v1,v1,v0
 73c:	3063000f 	andi	v1,v1,0xf
 740:	00621023 	subu	v0,v1,v0
 744:	304300ff 	andi	v1,v0,0xff
 748:	8fc2000c 	lw	v0,12(s8)
 74c:	00000000 	nop
 750:	a0430000 	sb	v1,0(v0)
 754:	00000000 	nop
 758:	03c0e825 	move	sp,s8
 75c:	8fbe0004 	lw	s8,4(sp)
 760:	27bd0008 	addiu	sp,sp,8
 764:	03e00008 	jr	ra
 768:	00000000 	nop

0000076c <delay>:
 76c:	27bdfff0 	addiu	sp,sp,-16
 770:	afbe000c 	sw	s8,12(sp)
 774:	03a0f025 	move	s8,sp
 778:	afc40010 	sw	a0,16(s8)
 77c:	afc00000 	sw	zero,0(s8)
 780:	10000005 	b	798 <delay+0x2c>
 784:	00000000 	nop
 788:	8fc20000 	lw	v0,0(s8)
 78c:	00000000 	nop
 790:	24420001 	addiu	v0,v0,1
 794:	afc20000 	sw	v0,0(s8)
 798:	8fc20000 	lw	v0,0(s8)
 79c:	8fc30010 	lw	v1,16(s8)
 7a0:	00000000 	nop
 7a4:	0043102a 	slt	v0,v0,v1
 7a8:	1440fff7 	bnez	v0,788 <delay+0x1c>
 7ac:	00000000 	nop
	...
 7b8:	03c0e825 	move	sp,s8
 7bc:	8fbe000c 	lw	s8,12(sp)
 7c0:	27bd0010 	addiu	sp,sp,16
 7c4:	03e00008 	jr	ra
 7c8:	00000000 	nop

000007cc <hex_to_ascii>:
 7cc:	27bdfff0 	addiu	sp,sp,-16
 7d0:	afbe000c 	sw	s8,12(sp)
 7d4:	03a0f025 	move	s8,sp
 7d8:	afc40010 	sw	a0,16(s8)
 7dc:	afc50014 	sw	a1,20(s8)
 7e0:	afc00000 	sw	zero,0(s8)
 7e4:	10000028 	b	888 <hex_to_ascii+0xbc>
 7e8:	00000000 	nop
 7ec:	8fc20000 	lw	v0,0(s8)
 7f0:	8fc30010 	lw	v1,16(s8)
 7f4:	00000000 	nop
 7f8:	00621021 	addu	v0,v1,v0
 7fc:	90420000 	lbu	v0,0(v0)
 800:	00000000 	nop
 804:	2c42000a 	sltiu	v0,v0,10
 808:	1040000f 	beqz	v0,848 <hex_to_ascii+0x7c>
 80c:	00000000 	nop
 810:	8fc20000 	lw	v0,0(s8)
 814:	8fc30010 	lw	v1,16(s8)
 818:	00000000 	nop
 81c:	00621021 	addu	v0,v1,v0
 820:	90430000 	lbu	v1,0(v0)
 824:	8fc20000 	lw	v0,0(s8)
 828:	8fc40014 	lw	a0,20(s8)
 82c:	00000000 	nop
 830:	00821021 	addu	v0,a0,v0
 834:	24630030 	addiu	v1,v1,48
 838:	306300ff 	andi	v1,v1,0xff
 83c:	a0430000 	sb	v1,0(v0)
 840:	1000000d 	b	878 <hex_to_ascii+0xac>
 844:	00000000 	nop
 848:	8fc20000 	lw	v0,0(s8)
 84c:	8fc30010 	lw	v1,16(s8)
 850:	00000000 	nop
 854:	00621021 	addu	v0,v1,v0
 858:	90430000 	lbu	v1,0(v0)
 85c:	8fc20000 	lw	v0,0(s8)
 860:	8fc40014 	lw	a0,20(s8)
 864:	00000000 	nop
 868:	00821021 	addu	v0,a0,v0
 86c:	24630037 	addiu	v1,v1,55
 870:	306300ff 	andi	v1,v1,0xff
 874:	a0430000 	sb	v1,0(v0)
 878:	8fc20000 	lw	v0,0(s8)
 87c:	00000000 	nop
 880:	24420001 	addiu	v0,v0,1
 884:	afc20000 	sw	v0,0(s8)
 888:	8fc20000 	lw	v0,0(s8)
 88c:	00000000 	nop
 890:	28420002 	slti	v0,v0,2
 894:	1440ffd5 	bnez	v0,7ec <hex_to_ascii+0x20>
 898:	00000000 	nop
	...
 8a4:	03c0e825 	move	sp,s8
 8a8:	8fbe000c 	lw	s8,12(sp)
 8ac:	27bd0010 	addiu	sp,sp,16
 8b0:	03e00008 	jr	ra
 8b4:	00000000 	nop

000008b8 <portio_setup>:
 8b8:	27bdffe0 	addiu	sp,sp,-32
 8bc:	afbf001c 	sw	ra,28(sp)
 8c0:	afbe0018 	sw	s8,24(sp)
 8c4:	03a0f025 	move	s8,sp
 8c8:	24047fff 	li	a0,32767
 8cc:	0c000053 	jal	14c <EnablePortIOBits>
 8d0:	00000000 	nop
 8d4:	24040007 	li	a0,7
 8d8:	0c000058 	jal	160 <ConfigPortIOBitsDirection>
 8dc:	00000000 	nop
 8e0:	3c020000 	lui	v0,0x0
 8e4:	90420020 	lbu	v0,32(v0)
 8e8:	00000000 	nop
 8ec:	000210c0 	sll	v0,v0,0x3
 8f0:	34426800 	ori	v0,v0,0x6800
 8f4:	afc20010 	sw	v0,16(s8)
 8f8:	8fc40010 	lw	a0,16(s8)
 8fc:	0c00004e 	jal	138 <WriteDataPortIO>
 900:	00000000 	nop
 904:	00000000 	nop
 908:	03c0e825 	move	sp,s8
 90c:	8fbf001c 	lw	ra,28(sp)
 910:	8fbe0018 	lw	s8,24(sp)
 914:	27bd0020 	addiu	sp,sp,32
 918:	03e00008 	jr	ra
 91c:	00000000 	nop

00000920 <debounce>:
 920:	27bdffd0 	addiu	sp,sp,-48
 924:	afbf002c 	sw	ra,44(sp)
 928:	afbe0028 	sw	s8,40(sp)
 92c:	03a0f025 	move	s8,sp
 930:	afc40030 	sw	a0,48(s8)
 934:	27c20020 	addiu	v0,s8,32
 938:	00402025 	move	a0,v0
 93c:	0c00005d 	jal	174 <ReadDataPortIO>
 940:	00000000 	nop
 944:	8fc20020 	lw	v0,32(s8)
 948:	00000000 	nop
 94c:	30420001 	andi	v0,v0,0x1
 950:	afc20010 	sw	v0,16(s8)
 954:	8fc20020 	lw	v0,32(s8)
 958:	00000000 	nop
 95c:	00021043 	sra	v0,v0,0x1
 960:	30420001 	andi	v0,v0,0x1
 964:	afc20014 	sw	v0,20(s8)
 968:	8fc20020 	lw	v0,32(s8)
 96c:	00000000 	nop
 970:	00021083 	sra	v0,v0,0x2
 974:	30420001 	andi	v0,v0,0x1
 978:	afc20018 	sw	v0,24(s8)
 97c:	afc0001c 	sw	zero,28(s8)
 980:	10000020 	b	a04 <debounce+0xe4>
 984:	00000000 	nop
 988:	27c20020 	addiu	v0,s8,32
 98c:	00402025 	move	a0,v0
 990:	0c00005d 	jal	174 <ReadDataPortIO>
 994:	00000000 	nop
 998:	8fc20020 	lw	v0,32(s8)
 99c:	00000000 	nop
 9a0:	30420001 	andi	v0,v0,0x1
 9a4:	8fc30010 	lw	v1,16(s8)
 9a8:	00000000 	nop
 9ac:	00621024 	and	v0,v1,v0
 9b0:	afc20010 	sw	v0,16(s8)
 9b4:	8fc20020 	lw	v0,32(s8)
 9b8:	00000000 	nop
 9bc:	00021043 	sra	v0,v0,0x1
 9c0:	30420001 	andi	v0,v0,0x1
 9c4:	8fc30014 	lw	v1,20(s8)
 9c8:	00000000 	nop
 9cc:	00621024 	and	v0,v1,v0
 9d0:	afc20014 	sw	v0,20(s8)
 9d4:	8fc20020 	lw	v0,32(s8)
 9d8:	00000000 	nop
 9dc:	00021083 	sra	v0,v0,0x2
 9e0:	30420001 	andi	v0,v0,0x1
 9e4:	8fc30018 	lw	v1,24(s8)
 9e8:	00000000 	nop
 9ec:	00621024 	and	v0,v1,v0
 9f0:	afc20018 	sw	v0,24(s8)
 9f4:	8fc2001c 	lw	v0,28(s8)
 9f8:	00000000 	nop
 9fc:	24420001 	addiu	v0,v0,1
 a00:	afc2001c 	sw	v0,28(s8)
 a04:	8fc2001c 	lw	v0,28(s8)
 a08:	00000000 	nop
 a0c:	28420010 	slti	v0,v0,16
 a10:	1440ffdd 	bnez	v0,988 <debounce+0x68>
 a14:	00000000 	nop
 a18:	8fc30010 	lw	v1,16(s8)
 a1c:	24020001 	li	v0,1
 a20:	14620006 	bne	v1,v0,a3c <debounce+0x11c>
 a24:	00000000 	nop
 a28:	8fc20030 	lw	v0,48(s8)
 a2c:	00000000 	nop
 a30:	ac400000 	sw	zero,0(v0)
 a34:	10000024 	b	ac8 <debounce+0x1a8>
 a38:	00000000 	nop
 a3c:	8fc30018 	lw	v1,24(s8)
 a40:	24020001 	li	v0,1
 a44:	1462000a 	bne	v1,v0,a70 <debounce+0x150>
 a48:	00000000 	nop
 a4c:	8fc30014 	lw	v1,20(s8)
 a50:	24020001 	li	v0,1
 a54:	14620006 	bne	v1,v0,a70 <debounce+0x150>
 a58:	00000000 	nop
 a5c:	8fc20030 	lw	v0,48(s8)
 a60:	24030003 	li	v1,3
 a64:	ac430000 	sw	v1,0(v0)
 a68:	10000017 	b	ac8 <debounce+0x1a8>
 a6c:	00000000 	nop
 a70:	8fc30018 	lw	v1,24(s8)
 a74:	24020001 	li	v0,1
 a78:	14620006 	bne	v1,v0,a94 <debounce+0x174>
 a7c:	00000000 	nop
 a80:	8fc20030 	lw	v0,48(s8)
 a84:	24030002 	li	v1,2
 a88:	ac430000 	sw	v1,0(v0)
 a8c:	1000000e 	b	ac8 <debounce+0x1a8>
 a90:	00000000 	nop
 a94:	8fc30014 	lw	v1,20(s8)
 a98:	24020001 	li	v0,1
 a9c:	14620006 	bne	v1,v0,ab8 <debounce+0x198>
 aa0:	00000000 	nop
 aa4:	8fc20030 	lw	v0,48(s8)
 aa8:	24030001 	li	v1,1
 aac:	ac430000 	sw	v1,0(v0)
 ab0:	10000005 	b	ac8 <debounce+0x1a8>
 ab4:	00000000 	nop
 ab8:	8fc20030 	lw	v0,48(s8)
 abc:	24030003 	li	v1,3
 ac0:	ac430000 	sw	v1,0(v0)
 ac4:	00000000 	nop
 ac8:	03c0e825 	move	sp,s8
 acc:	8fbf002c 	lw	ra,44(sp)
 ad0:	8fbe0028 	lw	s8,40(sp)
 ad4:	27bd0030 	addiu	sp,sp,48
 ad8:	03e00008 	jr	ra
 adc:	00000000 	nop

00000ae0 <refresh>:
 ae0:	27bdffd8 	addiu	sp,sp,-40
 ae4:	afbf0024 	sw	ra,36(sp)
 ae8:	afbe0020 	sw	s8,32(sp)
 aec:	03a0f025 	move	s8,sp
 af0:	afc40028 	sw	a0,40(s8)
 af4:	27c20018 	addiu	v0,s8,24
 af8:	00402025 	move	a0,v0
 afc:	0c00005d 	jal	174 <ReadDataPortIO>
 b00:	00000000 	nop
 b04:	8fc20018 	lw	v0,24(s8)
 b08:	00000000 	nop
 b0c:	000212c3 	sra	v0,v0,0xb
 b10:	304200ff 	andi	v0,v0,0xff
 b14:	30420003 	andi	v0,v0,0x3
 b18:	a3c20014 	sb	v0,20(s8)
 b1c:	a7c0001c 	sh	zero,28(s8)
 b20:	27c2001c 	addiu	v0,s8,28
 b24:	00402825 	move	a1,v0
 b28:	8fc40028 	lw	a0,40(s8)
 b2c:	0c0001b3 	jal	6cc <integer_to_hex>
 b30:	00000000 	nop
 b34:	93c2001c 	lbu	v0,28(s8)
 b38:	00000000 	nop
 b3c:	a3c20015 	sb	v0,21(s8)
 b40:	93c2001d 	lbu	v0,29(s8)
 b44:	00000000 	nop
 b48:	00401825 	move	v1,v0
 b4c:	3c020000 	lui	v0,0x0
 b50:	24420020 	addiu	v0,v0,32
 b54:	00621021 	addu	v0,v1,v0
 b58:	90420000 	lbu	v0,0(v0)
 b5c:	00000000 	nop
 b60:	a3c2001c 	sb	v0,28(s8)
 b64:	93c30015 	lbu	v1,21(s8)
 b68:	3c020000 	lui	v0,0x0
 b6c:	24420020 	addiu	v0,v0,32
 b70:	00621021 	addu	v0,v1,v0
 b74:	90420000 	lbu	v0,0(v0)
 b78:	00000000 	nop
 b7c:	a3c2001d 	sb	v0,29(s8)
 b80:	afc00010 	sw	zero,16(s8)
 b84:	93c20014 	lbu	v0,20(s8)
 b88:	00000000 	nop
 b8c:	38420003 	xori	v0,v0,0x3
 b90:	a3c20014 	sb	v0,20(s8)
 b94:	93c30014 	lbu	v1,20(s8)
 b98:	24020001 	li	v0,1
 b9c:	14620005 	bne	v1,v0,bb4 <refresh+0xd4>
 ba0:	00000000 	nop
 ba4:	24020001 	li	v0,1
 ba8:	afc20010 	sw	v0,16(s8)
 bac:	10000002 	b	bb8 <refresh+0xd8>
 bb0:	00000000 	nop
 bb4:	afc00010 	sw	zero,16(s8)
 bb8:	8fc20010 	lw	v0,16(s8)
 bbc:	27c30010 	addiu	v1,s8,16
 bc0:	00621021 	addu	v0,v1,v0
 bc4:	9042000c 	lbu	v0,12(v0)
 bc8:	00000000 	nop
 bcc:	000210c0 	sll	v0,v0,0x3
 bd0:	304307f8 	andi	v1,v0,0x7f8
 bd4:	93c20014 	lbu	v0,20(s8)
 bd8:	00000000 	nop
 bdc:	000212c0 	sll	v0,v0,0xb
 be0:	30421800 	andi	v0,v0,0x1800
 be4:	00621025 	or	v0,v1,v0
 be8:	00401825 	move	v1,v0
 bec:	8fc20018 	lw	v0,24(s8)
 bf0:	00000000 	nop
 bf4:	00402025 	move	a0,v0
 bf8:	3c02ffff 	lui	v0,0xffff
 bfc:	34426007 	ori	v0,v0,0x6007
 c00:	00821024 	and	v0,a0,v0
 c04:	00621025 	or	v0,v1,v0
 c08:	afc20018 	sw	v0,24(s8)
 c0c:	8fc20018 	lw	v0,24(s8)
 c10:	00000000 	nop
 c14:	00402025 	move	a0,v0
 c18:	0c00004e 	jal	138 <WriteDataPortIO>
 c1c:	00000000 	nop
 c20:	00000000 	nop
 c24:	03c0e825 	move	sp,s8
 c28:	8fbf0024 	lw	ra,36(sp)
 c2c:	8fbe0020 	lw	s8,32(sp)
 c30:	27bd0028 	addiu	sp,sp,40
 c34:	03e00008 	jr	ra
 c38:	00000000 	nop

00000c3c <main>:
 c3c:	27bdff50 	addiu	sp,sp,-176
 c40:	afbf00ac 	sw	ra,172(sp)
 c44:	afbe00a8 	sw	s8,168(sp)
 c48:	03a0f025 	move	s8,sp
 c4c:	0c00022e 	jal	8b8 <portio_setup>
 c50:	00000000 	nop
 c54:	afc000a0 	sw	zero,160(s8)
 c58:	24021388 	li	v0,5000
 c5c:	afc20010 	sw	v0,16(s8)
 c60:	afc00014 	sw	zero,20(s8)
 c64:	24020001 	li	v0,1
 c68:	afc20018 	sw	v0,24(s8)
 c6c:	afc000a0 	sw	zero,160(s8)
 c70:	8fc20018 	lw	v0,24(s8)
 c74:	00000000 	nop
 c78:	10400050 	beqz	v0,dbc <main+0x180>
 c7c:	00000000 	nop
 c80:	8fc40014 	lw	a0,20(s8)
 c84:	0c0002b8 	jal	ae0 <refresh>
 c88:	00000000 	nop
 c8c:	a7c000a4 	sh	zero,164(s8)
 c90:	27c200a4 	addiu	v0,s8,164
 c94:	00402825 	move	a1,v0
 c98:	8fc40014 	lw	a0,20(s8)
 c9c:	0c0001b3 	jal	6cc <integer_to_hex>
 ca0:	00000000 	nop
 ca4:	27c30020 	addiu	v1,s8,32
 ca8:	27c200a4 	addiu	v0,s8,164
 cac:	00602825 	move	a1,v1
 cb0:	00402025 	move	a0,v0
 cb4:	0c0001f3 	jal	7cc <hex_to_ascii>
 cb8:	00000000 	nop
 cbc:	3c020000 	lui	v0,0x0
 cc0:	24440030 	addiu	a0,v0,48
 cc4:	0c00004b 	jal	12c <PrintString>
 cc8:	00000000 	nop
 ccc:	27c20020 	addiu	v0,s8,32
 cd0:	00402025 	move	a0,v0
 cd4:	0c00004b 	jal	12c <PrintString>
 cd8:	00000000 	nop
 cdc:	3c020000 	lui	v0,0x0
 ce0:	2444003c 	addiu	a0,v0,60
 ce4:	0c00004b 	jal	12c <PrintString>
 ce8:	00000000 	nop
 cec:	afc0001c 	sw	zero,28(s8)
 cf0:	10000012 	b	d3c <main+0x100>
 cf4:	00000000 	nop
 cf8:	8fc20010 	lw	v0,16(s8)
 cfc:	00000000 	nop
 d00:	2442ffff 	addiu	v0,v0,-1
 d04:	afc20010 	sw	v0,16(s8)
 d08:	8fc20010 	lw	v0,16(s8)
 d0c:	00000000 	nop
 d10:	14400006 	bnez	v0,d2c <main+0xf0>
 d14:	00000000 	nop
 d18:	8fc40014 	lw	a0,20(s8)
 d1c:	0c0002b8 	jal	ae0 <refresh>
 d20:	00000000 	nop
 d24:	24021388 	li	v0,5000
 d28:	afc20010 	sw	v0,16(s8)
 d2c:	8fc2001c 	lw	v0,28(s8)
 d30:	00000000 	nop
 d34:	24420001 	addiu	v0,v0,1
 d38:	afc2001c 	sw	v0,28(s8)
 d3c:	8fc3001c 	lw	v1,28(s8)
 d40:	3c020007 	lui	v0,0x7
 d44:	3442a120 	ori	v0,v0,0xa120
 d48:	0062102a 	slt	v0,v1,v0
 d4c:	1440ffea 	bnez	v0,cf8 <main+0xbc>
 d50:	00000000 	nop
 d54:	afc00018 	sw	zero,24(s8)
 d58:	10000018 	b	dbc <main+0x180>
 d5c:	00000000 	nop
 d60:	27c200a0 	addiu	v0,s8,160
 d64:	00402025 	move	a0,v0
 d68:	0c00005d 	jal	174 <ReadDataPortIO>
 d6c:	00000000 	nop
 d70:	8fc200a0 	lw	v0,160(s8)
 d74:	00000000 	nop
 d78:	30420007 	andi	v0,v0,0x7
 d7c:	afc200a0 	sw	v0,160(s8)
 d80:	8fc20010 	lw	v0,16(s8)
 d84:	00000000 	nop
 d88:	2442ffff 	addiu	v0,v0,-1
 d8c:	afc20010 	sw	v0,16(s8)
 d90:	8fc20010 	lw	v0,16(s8)
 d94:	00000000 	nop
 d98:	14400006 	bnez	v0,db4 <main+0x178>
 d9c:	00000000 	nop
 da0:	8fc40014 	lw	a0,20(s8)
 da4:	0c0002b8 	jal	ae0 <refresh>
 da8:	00000000 	nop
 dac:	240201f4 	li	v0,500
 db0:	afc20010 	sw	v0,16(s8)
 db4:	24020001 	li	v0,1
 db8:	afc20018 	sw	v0,24(s8)
 dbc:	8fc200a0 	lw	v0,160(s8)
 dc0:	00000000 	nop
 dc4:	1040ffe6 	beqz	v0,d60 <main+0x124>
 dc8:	00000000 	nop
 dcc:	27c200a0 	addiu	v0,s8,160
 dd0:	00402025 	move	a0,v0
 dd4:	0c000248 	jal	920 <debounce>
 dd8:	00000000 	nop
 ddc:	8fc200a0 	lw	v0,160(s8)
 de0:	24030002 	li	v1,2
 de4:	10430019 	beq	v0,v1,e4c <main+0x210>
 de8:	00000000 	nop
 dec:	28430003 	slti	v1,v0,3
 df0:	10600024 	beqz	v1,e84 <main+0x248>
 df4:	00000000 	nop
 df8:	10400011 	beqz	v0,e40 <main+0x204>
 dfc:	00000000 	nop
 e00:	24030001 	li	v1,1
 e04:	1443001f 	bne	v0,v1,e84 <main+0x248>
 e08:	00000000 	nop
 e0c:	8fc20014 	lw	v0,20(s8)
 e10:	00000000 	nop
 e14:	14400004 	bnez	v0,e28 <main+0x1ec>
 e18:	00000000 	nop
 e1c:	afc00014 	sw	zero,20(s8)
 e20:	10000019 	b	e88 <main+0x24c>
 e24:	00000000 	nop
 e28:	8fc20014 	lw	v0,20(s8)
 e2c:	00000000 	nop
 e30:	2442ffff 	addiu	v0,v0,-1
 e34:	afc20014 	sw	v0,20(s8)
 e38:	10000013 	b	e88 <main+0x24c>
 e3c:	00000000 	nop
 e40:	afc00014 	sw	zero,20(s8)
 e44:	10000010 	b	e88 <main+0x24c>
 e48:	00000000 	nop
 e4c:	8fc30014 	lw	v1,20(s8)
 e50:	240200ff 	li	v0,255
 e54:	14620005 	bne	v1,v0,e6c <main+0x230>
 e58:	00000000 	nop
 e5c:	240200ff 	li	v0,255
 e60:	afc20014 	sw	v0,20(s8)
 e64:	10000008 	b	e88 <main+0x24c>
 e68:	00000000 	nop
 e6c:	8fc20014 	lw	v0,20(s8)
 e70:	00000000 	nop
 e74:	24420001 	addiu	v0,v0,1
 e78:	afc20014 	sw	v0,20(s8)
 e7c:	10000002 	b	e88 <main+0x24c>
 e80:	00000000 	nop
 e84:	00000000 	nop
 e88:	1000ff78 	b	c6c <main+0x30>
 e8c:	00000000 	nop

Disassembly of section .MIPS.abiflags:

00000e90 <.MIPS.abiflags>:
 e90:	01200000 	0x1200000
 e94:	03000001 	movf	zero,t8,$fcc0
	...
 ea0:	00000001 	movf	zero,zero,$fcc0
 ea4:	00000000 	nop

Disassembly of section .data:

00000000 <send_uart_ptr>:
   0:	80000300 	lb	zero,768(zero)

00000004 <check_uart_ptr>:
   4:	80000310 	lb	zero,784(zero)

00000008 <portio_data_ptr>:
   8:	80000020 	lb	zero,32(zero)

0000000c <portio_en_ptr>:
   c:	80000000 	lb	zero,0(zero)

00000010 <portio_config_ptr>:
  10:	80000010 	lb	zero,16(zero)

00000014 <system_calls>:
  14:	00000188 	0x188
  18:	0000021c 	0x21c
  1c:	000002cc 	syscall	0xb

00000020 <display_out>:
  20:	b0a4f9c0 	0xb0a4f9c0
  24:	f8829299 	sdc2	$2,-28007(a0)
  28:	83889080 	lb	t0,-28544(gp)
  2c:	8e86a1c6 	lw	a2,-24122(s4)
  30:	746e6f63 	jalx	1b9bd8c <_stack_ptr+0x1b9ad90>
  34:	726f6461 	0x726f6461
  38:	0000203a 	0x203a
  3c:	Address 0x000000000000003c is out of bounds.


Disassembly of section .reginfo:

00000000 <.reginfo>:
   0:	b0000100 	0xb0000100
	...

Disassembly of section .pdr:

00000000 <.pdr>:
	...
  20:	00000188 	0x188
  24:	40000000 	mfc0	zero,c0_index
  28:	fffffffc 	sdc3	$31,-4(ra)
	...
  34:	00000008 	jr	zero
  38:	0000001e 	0x1e
  3c:	0000001f 	0x1f
  40:	0000021c 	0x21c
  44:	40000000 	mfc0	zero,c0_index
  48:	fffffffc 	sdc3	$31,-4(ra)
	...
  54:	00000008 	jr	zero
  58:	0000001e 	0x1e
  5c:	0000001f 	0x1f
  60:	000002cc 	syscall	0xb
  64:	40000000 	mfc0	zero,c0_index
  68:	fffffffc 	sdc3	$31,-4(ra)
	...
  74:	00000008 	jr	zero
  78:	0000001e 	0x1e
  7c:	0000001f 	0x1f
  80:	00000394 	0x394
  84:	40000000 	mfc0	zero,c0_index
  88:	fffffffc 	sdc3	$31,-4(ra)
	...
  94:	00000010 	mfhi	zero
  98:	0000001e 	0x1e
  9c:	0000001f 	0x1f
  a0:	000003f8 	0x3f8
  a4:	c0000000 	ll	zero,0(zero)
  a8:	fffffffc 	sdc3	$31,-4(ra)
	...
  b4:	00000028 	0x28
  b8:	0000001e 	0x1e
  bc:	0000001f 	0x1f
  c0:	000004ec 	0x4ec
  c4:	40000000 	mfc0	zero,c0_index
  c8:	fffffffc 	sdc3	$31,-4(ra)
	...
  d4:	00000008 	jr	zero
  d8:	0000001e 	0x1e
  dc:	0000001f 	0x1f
  e0:	0000052c 	0x52c
  e4:	c0000000 	ll	zero,0(zero)
  e8:	fffffffc 	sdc3	$31,-4(ra)
	...
  f4:	00000020 	add	zero,zero,zero
  f8:	0000001e 	0x1e
  fc:	0000001f 	0x1f
 100:	00000688 	0x688
 104:	c0000000 	ll	zero,0(zero)
 108:	fffffffc 	sdc3	$31,-4(ra)
	...
 114:	00000018 	mult	zero,zero
 118:	0000001e 	0x1e
 11c:	0000001f 	0x1f
 120:	000006cc 	syscall	0x1b
 124:	40000000 	mfc0	zero,c0_index
 128:	fffffffc 	sdc3	$31,-4(ra)
	...
 134:	00000008 	jr	zero
 138:	0000001e 	0x1e
 13c:	0000001f 	0x1f
 140:	0000076c 	0x76c
 144:	40000000 	mfc0	zero,c0_index
 148:	fffffffc 	sdc3	$31,-4(ra)
	...
 154:	00000010 	mfhi	zero
 158:	0000001e 	0x1e
 15c:	0000001f 	0x1f
 160:	000007cc 	syscall	0x1f
 164:	40000000 	mfc0	zero,c0_index
 168:	fffffffc 	sdc3	$31,-4(ra)
	...
 174:	00000010 	mfhi	zero
 178:	0000001e 	0x1e
 17c:	0000001f 	0x1f
 180:	000008b8 	0x8b8
 184:	c0000000 	ll	zero,0(zero)
 188:	fffffffc 	sdc3	$31,-4(ra)
	...
 194:	00000020 	add	zero,zero,zero
 198:	0000001e 	0x1e
 19c:	0000001f 	0x1f
 1a0:	00000920 	0x920
 1a4:	c0000000 	ll	zero,0(zero)
 1a8:	fffffffc 	sdc3	$31,-4(ra)
	...
 1b4:	00000030 	tge	zero,zero
 1b8:	0000001e 	0x1e
 1bc:	0000001f 	0x1f
 1c0:	00000ae0 	0xae0
 1c4:	c0000000 	ll	zero,0(zero)
 1c8:	fffffffc 	sdc3	$31,-4(ra)
	...
 1d4:	00000028 	0x28
 1d8:	0000001e 	0x1e
 1dc:	0000001f 	0x1f
 1e0:	00000c3c 	0xc3c
 1e4:	c0000000 	ll	zero,0(zero)
 1e8:	fffffffc 	sdc3	$31,-4(ra)
	...
 1f4:	000000b0 	tge	zero,zero,0x2
 1f8:	0000001e 	0x1e
 1fc:	0000001f 	0x1f

Disassembly of section .gnu.attributes:

00000000 <.gnu.attributes>:
   0:	00000f41 	0xf41
   4:	756e6700 	jalx	5b99c00 <_stack_ptr+0x5b98c04>
   8:	00070100 	sll	zero,a3,0x4
   c:	03040000 	0x3040000

Disassembly of section .comment:

00000000 <.comment>:
   0:	3a434347 	xori	v1,s2,0x4347
   4:	6f432820 	0x6f432820
   8:	63736564 	0x63736564
   c:	20657061 	addi	a1,v1,28769
  10:	20554e47 	addi	s5,v0,20039
  14:	6c6f6f54 	0x6c6f6f54
  18:	30322073 	andi	s2,at,0x2073
  1c:	312e3432 	andi	t6,t1,0x3432
  20:	33302d30 	andi	s0,t9,0x2d30
  24:	726f6620 	0x726f6620
  28:	50494d20 	beql	v0,t1,134ac <_stack_ptr+0x124b0>
  2c:	4d492053 	0x4d492053
  30:	61422047 	0x61422047
  34:	4d206572 	0x4d206572
  38:	6c617465 	0x6c617465
  3c:	31312029 	andi	s1,t1,0x2029
  40:	302e322e 	andi	t6,at,0x322e
	...
